
wipro.elf:     file format elf32-avr

Sections:
Idx Name          Size      VMA       LMA       File off  Algn
  0 .data         00000668  00800200  0000256e  00002602  2**0
                  CONTENTS, ALLOC, LOAD, DATA
  1 .text         0000256e  00000000  00000000  00000094  2**1
                  CONTENTS, ALLOC, LOAD, READONLY, CODE
  2 .bss          000001e2  00800868  00800868  00002c6a  2**0
                  ALLOC
  3 .comment      0000005c  00000000  00000000  00002c6a  2**0
                  CONTENTS, READONLY

Disassembly of section .text:

00000000 <__vectors>:
       0:	71 c0       	rjmp	.+226    	; 0xe4 <__ctors_end>
       2:	00 00       	nop
       4:	8e c0       	rjmp	.+284    	; 0x122 <__bad_interrupt>
       6:	00 00       	nop
       8:	8c c0       	rjmp	.+280    	; 0x122 <__bad_interrupt>
       a:	00 00       	nop
       c:	8a c0       	rjmp	.+276    	; 0x122 <__bad_interrupt>
       e:	00 00       	nop
      10:	88 c0       	rjmp	.+272    	; 0x122 <__bad_interrupt>
      12:	00 00       	nop
      14:	86 c0       	rjmp	.+268    	; 0x122 <__bad_interrupt>
      16:	00 00       	nop
      18:	d2 c1       	rjmp	.+932    	; 0x3be <__vector_6>
      1a:	00 00       	nop
      1c:	82 c0       	rjmp	.+260    	; 0x122 <__bad_interrupt>
      1e:	00 00       	nop
      20:	80 c0       	rjmp	.+256    	; 0x122 <__bad_interrupt>
      22:	00 00       	nop
      24:	7e c0       	rjmp	.+252    	; 0x122 <__bad_interrupt>
      26:	00 00       	nop
      28:	7c c0       	rjmp	.+248    	; 0x122 <__bad_interrupt>
      2a:	00 00       	nop
      2c:	7a c0       	rjmp	.+244    	; 0x122 <__bad_interrupt>
      2e:	00 00       	nop
      30:	78 c0       	rjmp	.+240    	; 0x122 <__bad_interrupt>
      32:	00 00       	nop
      34:	76 c0       	rjmp	.+236    	; 0x122 <__bad_interrupt>
      36:	00 00       	nop
      38:	74 c0       	rjmp	.+232    	; 0x122 <__bad_interrupt>
      3a:	00 00       	nop
      3c:	72 c0       	rjmp	.+228    	; 0x122 <__bad_interrupt>
      3e:	00 00       	nop
      40:	70 c0       	rjmp	.+224    	; 0x122 <__bad_interrupt>
      42:	00 00       	nop
      44:	6e c0       	rjmp	.+220    	; 0x122 <__bad_interrupt>
      46:	00 00       	nop
      48:	6c c0       	rjmp	.+216    	; 0x122 <__bad_interrupt>
      4a:	00 00       	nop
      4c:	6a c0       	rjmp	.+212    	; 0x122 <__bad_interrupt>
      4e:	00 00       	nop
      50:	7b c1       	rjmp	.+758    	; 0x348 <__vector_20>
      52:	00 00       	nop
      54:	66 c0       	rjmp	.+204    	; 0x122 <__bad_interrupt>
      56:	00 00       	nop
      58:	64 c0       	rjmp	.+200    	; 0x122 <__bad_interrupt>
      5a:	00 00       	nop
      5c:	62 c0       	rjmp	.+196    	; 0x122 <__bad_interrupt>
      5e:	00 00       	nop
      60:	60 c0       	rjmp	.+192    	; 0x122 <__bad_interrupt>
      62:	00 00       	nop
      64:	0c 94 e0 09 	jmp	0x13c0	; 0x13c0 <__vector_25>
      68:	5c c0       	rjmp	.+184    	; 0x122 <__bad_interrupt>
      6a:	00 00       	nop
      6c:	5a c0       	rjmp	.+180    	; 0x122 <__bad_interrupt>
      6e:	00 00       	nop
      70:	58 c0       	rjmp	.+176    	; 0x122 <__bad_interrupt>
      72:	00 00       	nop
      74:	56 c0       	rjmp	.+172    	; 0x122 <__bad_interrupt>
      76:	00 00       	nop
      78:	54 c0       	rjmp	.+168    	; 0x122 <__bad_interrupt>
      7a:	00 00       	nop
      7c:	52 c0       	rjmp	.+164    	; 0x122 <__bad_interrupt>
      7e:	00 00       	nop
      80:	50 c0       	rjmp	.+160    	; 0x122 <__bad_interrupt>
      82:	00 00       	nop
      84:	4e c0       	rjmp	.+156    	; 0x122 <__bad_interrupt>
      86:	00 00       	nop
      88:	4c c0       	rjmp	.+152    	; 0x122 <__bad_interrupt>
      8a:	00 00       	nop
      8c:	4a c0       	rjmp	.+148    	; 0x122 <__bad_interrupt>
      8e:	00 00       	nop
      90:	48 c0       	rjmp	.+144    	; 0x122 <__bad_interrupt>
      92:	00 00       	nop
      94:	46 c0       	rjmp	.+140    	; 0x122 <__bad_interrupt>
      96:	00 00       	nop
      98:	44 c0       	rjmp	.+136    	; 0x122 <__bad_interrupt>
      9a:	00 00       	nop
      9c:	42 c0       	rjmp	.+132    	; 0x122 <__bad_interrupt>
      9e:	00 00       	nop
      a0:	40 c0       	rjmp	.+128    	; 0x122 <__bad_interrupt>
      a2:	00 00       	nop
      a4:	3e c0       	rjmp	.+124    	; 0x122 <__bad_interrupt>
      a6:	00 00       	nop
      a8:	3c c0       	rjmp	.+120    	; 0x122 <__bad_interrupt>
      aa:	00 00       	nop
      ac:	3a c0       	rjmp	.+116    	; 0x122 <__bad_interrupt>
      ae:	00 00       	nop
      b0:	38 c0       	rjmp	.+112    	; 0x122 <__bad_interrupt>
      b2:	00 00       	nop
      b4:	36 c0       	rjmp	.+108    	; 0x122 <__bad_interrupt>
      b6:	00 00       	nop
      b8:	34 c0       	rjmp	.+104    	; 0x122 <__bad_interrupt>
      ba:	00 00       	nop
      bc:	32 c0       	rjmp	.+100    	; 0x122 <__bad_interrupt>
      be:	00 00       	nop
      c0:	30 c0       	rjmp	.+96     	; 0x122 <__bad_interrupt>
      c2:	00 00       	nop
      c4:	2e c0       	rjmp	.+92     	; 0x122 <__bad_interrupt>
      c6:	00 00       	nop
      c8:	2c c0       	rjmp	.+88     	; 0x122 <__bad_interrupt>
      ca:	00 00       	nop
      cc:	2a c0       	rjmp	.+84     	; 0x122 <__bad_interrupt>
      ce:	00 00       	nop
      d0:	28 c0       	rjmp	.+80     	; 0x122 <__bad_interrupt>
      d2:	00 00       	nop
      d4:	26 c0       	rjmp	.+76     	; 0x122 <__bad_interrupt>
      d6:	00 00       	nop
      d8:	24 c0       	rjmp	.+72     	; 0x122 <__bad_interrupt>
      da:	00 00       	nop
      dc:	22 c0       	rjmp	.+68     	; 0x122 <__bad_interrupt>
      de:	00 00       	nop
      e0:	20 c0       	rjmp	.+64     	; 0x122 <__bad_interrupt>
	...

000000e4 <__ctors_end>:
      e4:	11 24       	eor	r1, r1
      e6:	1f be       	out	0x3f, r1	; 63
      e8:	cf ef       	ldi	r28, 0xFF	; 255
      ea:	d1 e2       	ldi	r29, 0x21	; 33
      ec:	de bf       	out	0x3e, r29	; 62
      ee:	cd bf       	out	0x3d, r28	; 61

000000f0 <__do_copy_data>:
      f0:	18 e0       	ldi	r17, 0x08	; 8
      f2:	a0 e0       	ldi	r26, 0x00	; 0
      f4:	b2 e0       	ldi	r27, 0x02	; 2
      f6:	ee e6       	ldi	r30, 0x6E	; 110
      f8:	f5 e2       	ldi	r31, 0x25	; 37
      fa:	00 e0       	ldi	r16, 0x00	; 0
      fc:	0b bf       	out	0x3b, r16	; 59
      fe:	02 c0       	rjmp	.+4      	; 0x104 <__do_copy_data+0x14>
     100:	07 90       	elpm	r0, Z+
     102:	0d 92       	st	X+, r0
     104:	a8 36       	cpi	r26, 0x68	; 104
     106:	b1 07       	cpc	r27, r17
     108:	d9 f7       	brne	.-10     	; 0x100 <__do_copy_data+0x10>

0000010a <__do_clear_bss>:
     10a:	2a e0       	ldi	r18, 0x0A	; 10
     10c:	a8 e6       	ldi	r26, 0x68	; 104
     10e:	b8 e0       	ldi	r27, 0x08	; 8
     110:	01 c0       	rjmp	.+2      	; 0x114 <.do_clear_bss_start>

00000112 <.do_clear_bss_loop>:
     112:	1d 92       	st	X+, r1

00000114 <.do_clear_bss_start>:
     114:	aa 34       	cpi	r26, 0x4A	; 74
     116:	b2 07       	cpc	r27, r18
     118:	e1 f7       	brne	.-8      	; 0x112 <.do_clear_bss_loop>
     11a:	0e 94 99 0f 	call	0x1f32	; 0x1f32 <main>
     11e:	0c 94 b5 12 	jmp	0x256a	; 0x256a <_exit>

00000122 <__bad_interrupt>:
     122:	6e cf       	rjmp	.-292    	; 0x0 <__vectors>

00000124 <flagInit>:
     124:	10 92 cf 08 	sts	0x08CF, r1
     128:	10 92 d0 08 	sts	0x08D0, r1
     12c:	10 92 d1 08 	sts	0x08D1, r1
     130:	10 92 d2 08 	sts	0x08D2, r1
     134:	10 92 d3 08 	sts	0x08D3, r1
     138:	65 99       	sbic	0x0c, 5	; 12
     13a:	08 c0       	rjmp	.+16     	; 0x14c <flagInit+0x28>
     13c:	85 e7       	ldi	r24, 0x75	; 117
     13e:	92 e0       	ldi	r25, 0x02	; 2
     140:	0e 94 26 10 	call	0x204c	; 0x204c <puts>
     144:	73 d1       	rcall	.+742    	; 0x42c <ethernetInit>
     146:	81 e0       	ldi	r24, 0x01	; 1
     148:	80 93 cf 08 	sts	0x08CF, r24
     14c:	08 95       	ret

0000014e <ethernetPlugInit>:
     14e:	80 e2       	ldi	r24, 0x20	; 32
     150:	8d bb       	out	0x1d, r24	; 29
     152:	84 e0       	ldi	r24, 0x04	; 4
     154:	80 93 6a 00 	sts	0x006A, r24
     158:	08 95       	ret

0000015a <connectionInit>:
     15a:	2d d5       	rcall	.+2650   	; 0xbb6 <uart2_init>
     15c:	e0 d7       	rcall	.+4032   	; 0x111e <uart_init>
     15e:	18 d6       	rcall	.+3120   	; 0xd90 <SPI_Init>
     160:	e1 df       	rcall	.-62     	; 0x124 <flagInit>
     162:	f5 df       	rcall	.-22     	; 0x14e <ethernetPlugInit>
     164:	84 e6       	ldi	r24, 0x64	; 100
     166:	eb e6       	ldi	r30, 0x6B	; 107
     168:	f8 e0       	ldi	r31, 0x08	; 8
     16a:	df 01       	movw	r26, r30
     16c:	1d 92       	st	X+, r1
     16e:	8a 95       	dec	r24
     170:	e9 f7       	brne	.-6      	; 0x16c <connectionInit+0x12>
     172:	81 e0       	ldi	r24, 0x01	; 1
     174:	80 93 d0 08 	sts	0x08D0, r24
     178:	08 95       	ret

0000017a <clearFlags>:
     17a:	80 91 cf 08 	lds	r24, 0x08CF
     17e:	88 23       	and	r24, r24
     180:	11 f1       	breq	.+68     	; 0x1c6 <clearFlags+0x4c>
     182:	84 e6       	ldi	r24, 0x64	; 100
     184:	eb e6       	ldi	r30, 0x6B	; 107
     186:	f8 e0       	ldi	r31, 0x08	; 8
     188:	df 01       	movw	r26, r30
     18a:	1d 92       	st	X+, r1
     18c:	8a 95       	dec	r24
     18e:	e9 f7       	brne	.-6      	; 0x18a <clearFlags+0x10>
     190:	67 e8       	ldi	r22, 0x87	; 135
     192:	72 e0       	ldi	r23, 0x02	; 2
     194:	cf 01       	movw	r24, r30
     196:	0e 94 d7 0f 	call	0x1fae	; 0x1fae <strcpy>
     19a:	6c e8       	ldi	r22, 0x8C	; 140
     19c:	72 e0       	ldi	r23, 0x02	; 2
     19e:	8b e6       	ldi	r24, 0x6B	; 107
     1a0:	98 e0       	ldi	r25, 0x08	; 8
     1a2:	0e 94 cc 0f 	call	0x1f98	; 0x1f98 <strcat>
     1a6:	61 ea       	ldi	r22, 0xA1	; 161
     1a8:	72 e0       	ldi	r23, 0x02	; 2
     1aa:	8b e6       	ldi	r24, 0x6B	; 107
     1ac:	98 e0       	ldi	r25, 0x08	; 8
     1ae:	0e 94 cc 0f 	call	0x1f98	; 0x1f98 <strcat>
     1b2:	63 eb       	ldi	r22, 0xB3	; 179
     1b4:	72 e0       	ldi	r23, 0x02	; 2
     1b6:	8b e6       	ldi	r24, 0x6B	; 107
     1b8:	98 e0       	ldi	r25, 0x08	; 8
     1ba:	0e 94 cc 0f 	call	0x1f98	; 0x1f98 <strcat>
     1be:	8b e6       	ldi	r24, 0x6B	; 107
     1c0:	98 e0       	ldi	r25, 0x08	; 8
     1c2:	48 d1       	rcall	.+656    	; 0x454 <updateFileEthernet>
     1c4:	1f c0       	rjmp	.+62     	; 0x204 <clearFlags+0x8a>
     1c6:	80 91 d0 08 	lds	r24, 0x08D0
     1ca:	88 23       	and	r24, r24
     1cc:	d9 f0       	breq	.+54     	; 0x204 <clearFlags+0x8a>
     1ce:	66 ec       	ldi	r22, 0xC6	; 198
     1d0:	72 e0       	ldi	r23, 0x02	; 2
     1d2:	8b e6       	ldi	r24, 0x6B	; 107
     1d4:	98 e0       	ldi	r25, 0x08	; 8
     1d6:	0e 94 d7 0f 	call	0x1fae	; 0x1fae <strcpy>
     1da:	6c e8       	ldi	r22, 0x8C	; 140
     1dc:	72 e0       	ldi	r23, 0x02	; 2
     1de:	8b e6       	ldi	r24, 0x6B	; 107
     1e0:	98 e0       	ldi	r25, 0x08	; 8
     1e2:	0e 94 cc 0f 	call	0x1f98	; 0x1f98 <strcat>
     1e6:	61 ea       	ldi	r22, 0xA1	; 161
     1e8:	72 e0       	ldi	r23, 0x02	; 2
     1ea:	8b e6       	ldi	r24, 0x6B	; 107
     1ec:	98 e0       	ldi	r25, 0x08	; 8
     1ee:	0e 94 cc 0f 	call	0x1f98	; 0x1f98 <strcat>
     1f2:	63 eb       	ldi	r22, 0xB3	; 179
     1f4:	72 e0       	ldi	r23, 0x02	; 2
     1f6:	8b e6       	ldi	r24, 0x6B	; 107
     1f8:	98 e0       	ldi	r25, 0x08	; 8
     1fa:	0e 94 cc 0f 	call	0x1f98	; 0x1f98 <strcat>
     1fe:	8b e6       	ldi	r24, 0x6B	; 107
     200:	98 e0       	ldi	r25, 0x08	; 8
     202:	77 d7       	rcall	.+3822   	; 0x10f2 <updateFileWifi>
     204:	84 e6       	ldi	r24, 0x64	; 100
     206:	eb e6       	ldi	r30, 0x6B	; 107
     208:	f8 e0       	ldi	r31, 0x08	; 8
     20a:	df 01       	movw	r26, r30
     20c:	1d 92       	st	X+, r1
     20e:	8a 95       	dec	r24
     210:	e9 f7       	brne	.-6      	; 0x20c <clearFlags+0x92>
     212:	81 e0       	ldi	r24, 0x01	; 1
     214:	90 e0       	ldi	r25, 0x00	; 0
     216:	08 95       	ret

00000218 <getHexFile>:
     218:	0f 93       	push	r16
     21a:	1f 93       	push	r17
     21c:	80 91 d0 08 	lds	r24, 0x08D0
     220:	88 23       	and	r24, r24
     222:	41 f1       	breq	.+80     	; 0x274 <getHexFile+0x5c>
     224:	6c e8       	ldi	r22, 0x8C	; 140
     226:	72 e0       	ldi	r23, 0x02	; 2
     228:	8b e6       	ldi	r24, 0x6B	; 107
     22a:	98 e0       	ldi	r25, 0x08	; 8
     22c:	0e 94 d7 0f 	call	0x1fae	; 0x1fae <strcpy>
     230:	6e e0       	ldi	r22, 0x0E	; 14
     232:	73 e0       	ldi	r23, 0x03	; 3
     234:	8b e6       	ldi	r24, 0x6B	; 107
     236:	98 e0       	ldi	r25, 0x08	; 8
     238:	0e 94 cc 0f 	call	0x1f98	; 0x1f98 <strcat>
     23c:	82 e3       	ldi	r24, 0x32	; 50
     23e:	93 e0       	ldi	r25, 0x03	; 3
     240:	9f 93       	push	r25
     242:	8f 93       	push	r24
     244:	0e 94 10 10 	call	0x2020	; 0x2020 <printf>
     248:	01 e0       	ldi	r16, 0x01	; 1
     24a:	10 e0       	ldi	r17, 0x00	; 0
     24c:	20 e0       	ldi	r18, 0x00	; 0
     24e:	30 e0       	ldi	r19, 0x00	; 0
     250:	a9 01       	movw	r20, r18
     252:	61 e0       	ldi	r22, 0x01	; 1
     254:	70 e0       	ldi	r23, 0x00	; 0
     256:	8b e6       	ldi	r24, 0x6B	; 107
     258:	98 e0       	ldi	r25, 0x08	; 8
     25a:	d0 d6       	rcall	.+3488   	; 0xffc <getFileWifi>
     25c:	0e 94 6c 09 	call	0x12d8	; 0x12d8 <getTransmissionLength>
     260:	0e 94 c1 0b 	call	0x1782	; 0x1782 <compressFile>
     264:	45 e1       	ldi	r20, 0x15	; 21
     266:	54 e0       	ldi	r21, 0x04	; 4
     268:	60 e0       	ldi	r22, 0x00	; 0
     26a:	70 e0       	ldi	r23, 0x00	; 0
     26c:	cb 01       	movw	r24, r22
     26e:	3c d5       	rcall	.+2680   	; 0xce8 <RAMPrint>
     270:	0f 90       	pop	r0
     272:	0f 90       	pop	r0
     274:	81 e0       	ldi	r24, 0x01	; 1
     276:	90 e0       	ldi	r25, 0x00	; 0
     278:	1f 91       	pop	r17
     27a:	0f 91       	pop	r16
     27c:	08 95       	ret

0000027e <getFlagStatus>:
     27e:	0f 93       	push	r16
     280:	1f 93       	push	r17
     282:	80 91 6f 00 	lds	r24, 0x006F
     286:	8e 7f       	andi	r24, 0xFE	; 254
     288:	80 93 6f 00 	sts	0x006F, r24
     28c:	80 91 d0 08 	lds	r24, 0x08D0
     290:	88 23       	and	r24, r24
     292:	09 f4       	brne	.+2      	; 0x296 <getFlagStatus+0x18>
     294:	42 c0       	rjmp	.+132    	; 0x31a <getFlagStatus+0x9c>
     296:	6c e8       	ldi	r22, 0x8C	; 140
     298:	72 e0       	ldi	r23, 0x02	; 2
     29a:	8b e6       	ldi	r24, 0x6B	; 107
     29c:	98 e0       	ldi	r25, 0x08	; 8
     29e:	0e 94 d7 0f 	call	0x1fae	; 0x1fae <strcpy>
     2a2:	65 e4       	ldi	r22, 0x45	; 69
     2a4:	73 e0       	ldi	r23, 0x03	; 3
     2a6:	8b e6       	ldi	r24, 0x6B	; 107
     2a8:	98 e0       	ldi	r25, 0x08	; 8
     2aa:	0e 94 cc 0f 	call	0x1f98	; 0x1f98 <strcat>
     2ae:	00 e0       	ldi	r16, 0x00	; 0
     2b0:	10 e0       	ldi	r17, 0x00	; 0
     2b2:	20 e0       	ldi	r18, 0x00	; 0
     2b4:	30 e3       	ldi	r19, 0x30	; 48
     2b6:	40 e0       	ldi	r20, 0x00	; 0
     2b8:	50 e0       	ldi	r21, 0x00	; 0
     2ba:	61 e0       	ldi	r22, 0x01	; 1
     2bc:	70 e0       	ldi	r23, 0x00	; 0
     2be:	8b e6       	ldi	r24, 0x6B	; 107
     2c0:	98 e0       	ldi	r25, 0x08	; 8
     2c2:	9c d6       	rcall	.+3384   	; 0xffc <getFileWifi>
     2c4:	8a e6       	ldi	r24, 0x6A	; 106
     2c6:	93 e0       	ldi	r25, 0x03	; 3
     2c8:	9f 93       	push	r25
     2ca:	8f 93       	push	r24
     2cc:	0e 94 10 10 	call	0x2020	; 0x2020 <printf>
     2d0:	43 e0       	ldi	r20, 0x03	; 3
     2d2:	50 e0       	ldi	r21, 0x00	; 0
     2d4:	60 e0       	ldi	r22, 0x00	; 0
     2d6:	70 e3       	ldi	r23, 0x30	; 48
     2d8:	80 e0       	ldi	r24, 0x00	; 0
     2da:	90 e0       	ldi	r25, 0x00	; 0
     2dc:	05 d5       	rcall	.+2570   	; 0xce8 <RAMPrint>
     2de:	8a e0       	ldi	r24, 0x0A	; 10
     2e0:	90 e0       	ldi	r25, 0x00	; 0
     2e2:	0e 94 21 10 	call	0x2042	; 0x2042 <putchar>
     2e6:	60 e0       	ldi	r22, 0x00	; 0
     2e8:	70 e3       	ldi	r23, 0x30	; 48
     2ea:	80 e0       	ldi	r24, 0x00	; 0
     2ec:	90 e0       	ldi	r25, 0x00	; 0
     2ee:	5d d5       	rcall	.+2746   	; 0xdaa <RAMReadByte>
     2f0:	8f 70       	andi	r24, 0x0F	; 15
     2f2:	80 93 d1 08 	sts	0x08D1, r24
     2f6:	61 e0       	ldi	r22, 0x01	; 1
     2f8:	70 e3       	ldi	r23, 0x30	; 48
     2fa:	80 e0       	ldi	r24, 0x00	; 0
     2fc:	90 e0       	ldi	r25, 0x00	; 0
     2fe:	55 d5       	rcall	.+2730   	; 0xdaa <RAMReadByte>
     300:	8f 70       	andi	r24, 0x0F	; 15
     302:	80 93 d2 08 	sts	0x08D2, r24
     306:	62 e0       	ldi	r22, 0x02	; 2
     308:	70 e3       	ldi	r23, 0x30	; 48
     30a:	80 e0       	ldi	r24, 0x00	; 0
     30c:	90 e0       	ldi	r25, 0x00	; 0
     30e:	4d d5       	rcall	.+2714   	; 0xdaa <RAMReadByte>
     310:	8f 70       	andi	r24, 0x0F	; 15
     312:	80 93 d3 08 	sts	0x08D3, r24
     316:	0f 90       	pop	r0
     318:	0f 90       	pop	r0
     31a:	84 e6       	ldi	r24, 0x64	; 100
     31c:	eb e6       	ldi	r30, 0x6B	; 107
     31e:	f8 e0       	ldi	r31, 0x08	; 8
     320:	df 01       	movw	r26, r30
     322:	1d 92       	st	X+, r1
     324:	8a 95       	dec	r24
     326:	e9 f7       	brne	.-6      	; 0x322 <getFlagStatus+0xa4>
     328:	86 e7       	ldi	r24, 0x76	; 118
     32a:	93 e0       	ldi	r25, 0x03	; 3
     32c:	0e 94 26 10 	call	0x204c	; 0x204c <puts>
     330:	73 df       	rcall	.-282    	; 0x218 <getHexFile>
     332:	23 df       	rcall	.-442    	; 0x17a <clearFlags>
     334:	80 91 6f 00 	lds	r24, 0x006F
     338:	81 60       	ori	r24, 0x01	; 1
     33a:	80 93 6f 00 	sts	0x006F, r24
     33e:	81 e0       	ldi	r24, 0x01	; 1
     340:	90 e0       	ldi	r25, 0x00	; 0
     342:	1f 91       	pop	r17
     344:	0f 91       	pop	r16
     346:	08 95       	ret

00000348 <__vector_20>:
     348:	1f 92       	push	r1
     34a:	0f 92       	push	r0
     34c:	0f b6       	in	r0, 0x3f	; 63
     34e:	0f 92       	push	r0
     350:	11 24       	eor	r1, r1
     352:	0b b6       	in	r0, 0x3b	; 59
     354:	0f 92       	push	r0
     356:	2f 93       	push	r18
     358:	3f 93       	push	r19
     35a:	4f 93       	push	r20
     35c:	5f 93       	push	r21
     35e:	6f 93       	push	r22
     360:	7f 93       	push	r23
     362:	8f 93       	push	r24
     364:	9f 93       	push	r25
     366:	af 93       	push	r26
     368:	bf 93       	push	r27
     36a:	cf 93       	push	r28
     36c:	df 93       	push	r29
     36e:	ef 93       	push	r30
     370:	ff 93       	push	r31
     372:	cf e6       	ldi	r28, 0x6F	; 111
     374:	d0 e0       	ldi	r29, 0x00	; 0
     376:	88 81       	ld	r24, Y
     378:	8e 7f       	andi	r24, 0xFE	; 254
     37a:	88 83       	st	Y, r24
     37c:	8f e7       	ldi	r24, 0x7F	; 127
     37e:	93 e0       	ldi	r25, 0x03	; 3
     380:	0e 94 26 10 	call	0x204c	; 0x204c <puts>
     384:	7c df       	rcall	.-264    	; 0x27e <getFlagStatus>
     386:	10 92 84 00 	sts	0x0084, r1
     38a:	10 92 85 00 	sts	0x0085, r1
     38e:	88 81       	ld	r24, Y
     390:	81 60       	ori	r24, 0x01	; 1
     392:	88 83       	st	Y, r24
     394:	ff 91       	pop	r31
     396:	ef 91       	pop	r30
     398:	df 91       	pop	r29
     39a:	cf 91       	pop	r28
     39c:	bf 91       	pop	r27
     39e:	af 91       	pop	r26
     3a0:	9f 91       	pop	r25
     3a2:	8f 91       	pop	r24
     3a4:	7f 91       	pop	r23
     3a6:	6f 91       	pop	r22
     3a8:	5f 91       	pop	r21
     3aa:	4f 91       	pop	r20
     3ac:	3f 91       	pop	r19
     3ae:	2f 91       	pop	r18
     3b0:	0f 90       	pop	r0
     3b2:	0b be       	out	0x3b, r0	; 59
     3b4:	0f 90       	pop	r0
     3b6:	0f be       	out	0x3f, r0	; 63
     3b8:	0f 90       	pop	r0
     3ba:	1f 90       	pop	r1
     3bc:	18 95       	reti

000003be <__vector_6>:
     3be:	1f 92       	push	r1
     3c0:	0f 92       	push	r0
     3c2:	0f b6       	in	r0, 0x3f	; 63
     3c4:	0f 92       	push	r0
     3c6:	11 24       	eor	r1, r1
     3c8:	0b b6       	in	r0, 0x3b	; 59
     3ca:	0f 92       	push	r0
     3cc:	2f 93       	push	r18
     3ce:	3f 93       	push	r19
     3d0:	4f 93       	push	r20
     3d2:	5f 93       	push	r21
     3d4:	6f 93       	push	r22
     3d6:	7f 93       	push	r23
     3d8:	8f 93       	push	r24
     3da:	9f 93       	push	r25
     3dc:	af 93       	push	r26
     3de:	bf 93       	push	r27
     3e0:	ef 93       	push	r30
     3e2:	ff 93       	push	r31
     3e4:	f8 94       	cli
     3e6:	65 9b       	sbis	0x0c, 5	; 12
     3e8:	05 c0       	rjmp	.+10     	; 0x3f4 <__vector_6+0x36>
     3ea:	10 92 cf 08 	sts	0x08CF, r1
     3ee:	8b e8       	ldi	r24, 0x8B	; 139
     3f0:	93 e0       	ldi	r25, 0x03	; 3
     3f2:	06 c0       	rjmp	.+12     	; 0x400 <__vector_6+0x42>
     3f4:	81 e0       	ldi	r24, 0x01	; 1
     3f6:	80 93 cf 08 	sts	0x08CF, r24
     3fa:	18 d0       	rcall	.+48     	; 0x42c <ethernetInit>
     3fc:	88 e9       	ldi	r24, 0x98	; 152
     3fe:	93 e0       	ldi	r25, 0x03	; 3
     400:	0e 94 26 10 	call	0x204c	; 0x204c <puts>
     404:	78 94       	sei
     406:	ff 91       	pop	r31
     408:	ef 91       	pop	r30
     40a:	bf 91       	pop	r27
     40c:	af 91       	pop	r26
     40e:	9f 91       	pop	r25
     410:	8f 91       	pop	r24
     412:	7f 91       	pop	r23
     414:	6f 91       	pop	r22
     416:	5f 91       	pop	r21
     418:	4f 91       	pop	r20
     41a:	3f 91       	pop	r19
     41c:	2f 91       	pop	r18
     41e:	0f 90       	pop	r0
     420:	0b be       	out	0x3b, r0	; 59
     422:	0f 90       	pop	r0
     424:	0f be       	out	0x3f, r0	; 63
     426:	0f 90       	pop	r0
     428:	1f 90       	pop	r1
     42a:	18 95       	reti

0000042c <ethernetInit>:
     42c:	28 e0       	ldi	r18, 0x08	; 8
     42e:	32 e0       	ldi	r19, 0x02	; 2
     430:	4c e0       	ldi	r20, 0x0C	; 12
     432:	52 e0       	ldi	r21, 0x02	; 2
     434:	60 e1       	ldi	r22, 0x10	; 16
     436:	72 e0       	ldi	r23, 0x02	; 2
     438:	84 e1       	ldi	r24, 0x14	; 20
     43a:	92 e0       	ldi	r25, 0x02	; 2
     43c:	64 d0       	rcall	.+200    	; 0x506 <NetworkSetup>
     43e:	20 e0       	ldi	r18, 0x00	; 0
     440:	32 e0       	ldi	r19, 0x02	; 2
     442:	42 e0       	ldi	r20, 0x02	; 2
     444:	52 e0       	ldi	r21, 0x02	; 2
     446:	64 e0       	ldi	r22, 0x04	; 4
     448:	72 e0       	ldi	r23, 0x02	; 2
     44a:	81 e0       	ldi	r24, 0x01	; 1
     44c:	ee d1       	rcall	.+988    	; 0x82a <Server_Connect>
     44e:	89 2b       	or	r24, r25
     450:	b1 f3       	breq	.-20     	; 0x43e <ethernetInit+0x12>
     452:	70 c2       	rjmp	.+1248   	; 0x934 <MemoryInit>

00000454 <updateFileEthernet>:
     454:	cf 93       	push	r28
     456:	df 93       	push	r29
     458:	bc 01       	movw	r22, r24
     45a:	84 ed       	ldi	r24, 0xD4	; 212
     45c:	98 e0       	ldi	r25, 0x08	; 8
     45e:	0e 94 d7 0f 	call	0x1fae	; 0x1fae <strcpy>
     462:	66 ea       	ldi	r22, 0xA6	; 166
     464:	73 e0       	ldi	r23, 0x03	; 3
     466:	84 ed       	ldi	r24, 0xD4	; 212
     468:	98 e0       	ldi	r25, 0x08	; 8
     46a:	0e 94 cc 0f 	call	0x1f98	; 0x1f98 <strcat>
     46e:	c4 ed       	ldi	r28, 0xD4	; 212
     470:	d8 e0       	ldi	r29, 0x08	; 8
     472:	df 93       	push	r29
     474:	cf 93       	push	r28
     476:	85 e0       	ldi	r24, 0x05	; 5
     478:	93 e0       	ldi	r25, 0x03	; 3
     47a:	9f 93       	push	r25
     47c:	8f 93       	push	r24
     47e:	0e 94 10 10 	call	0x2020	; 0x2020 <printf>
     482:	fe 01       	movw	r30, r28
     484:	01 90       	ld	r0, Z+
     486:	00 20       	and	r0, r0
     488:	e9 f7       	brne	.-6      	; 0x484 <updateFileEthernet+0x30>
     48a:	bf 01       	movw	r22, r30
     48c:	61 50       	subi	r22, 0x01	; 1
     48e:	71 09       	sbc	r23, r1
     490:	64 5d       	subi	r22, 0xD4	; 212
     492:	78 40       	sbci	r23, 0x08	; 8
     494:	40 e0       	ldi	r20, 0x00	; 0
     496:	50 e0       	ldi	r21, 0x00	; 0
     498:	ce 01       	movw	r24, r28
     49a:	6f d2       	rcall	.+1246   	; 0x97a <SendData>
     49c:	84 e6       	ldi	r24, 0x64	; 100
     49e:	fe 01       	movw	r30, r28
     4a0:	11 92       	st	Z+, r1
     4a2:	8a 95       	dec	r24
     4a4:	e9 f7       	brne	.-6      	; 0x4a0 <updateFileEthernet+0x4c>
     4a6:	0f 90       	pop	r0
     4a8:	0f 90       	pop	r0
     4aa:	0f 90       	pop	r0
     4ac:	0f 90       	pop	r0
     4ae:	df 91       	pop	r29
     4b0:	cf 91       	pop	r28
     4b2:	08 95       	ret

000004b4 <SPI_EthernetWrite>:
     4b4:	74 98       	cbi	0x0e, 4	; 14
     4b6:	20 ef       	ldi	r18, 0xF0	; 240
     4b8:	2e bd       	out	0x2e, r18	; 46
     4ba:	0d b4       	in	r0, 0x2d	; 45
     4bc:	07 fe       	sbrs	r0, 7
     4be:	fd cf       	rjmp	.-6      	; 0x4ba <SPI_EthernetWrite+0x6>
     4c0:	9e bd       	out	0x2e, r25	; 46
     4c2:	0d b4       	in	r0, 0x2d	; 45
     4c4:	07 fe       	sbrs	r0, 7
     4c6:	fd cf       	rjmp	.-6      	; 0x4c2 <SPI_EthernetWrite+0xe>
     4c8:	8e bd       	out	0x2e, r24	; 46
     4ca:	0d b4       	in	r0, 0x2d	; 45
     4cc:	07 fe       	sbrs	r0, 7
     4ce:	fd cf       	rjmp	.-6      	; 0x4ca <SPI_EthernetWrite+0x16>
     4d0:	6e bd       	out	0x2e, r22	; 46
     4d2:	0d b4       	in	r0, 0x2d	; 45
     4d4:	07 fe       	sbrs	r0, 7
     4d6:	fd cf       	rjmp	.-6      	; 0x4d2 <SPI_EthernetWrite+0x1e>
     4d8:	74 9a       	sbi	0x0e, 4	; 14
     4da:	08 95       	ret

000004dc <SPI_EthernetRead>:
     4dc:	74 98       	cbi	0x0e, 4	; 14
     4de:	2f e0       	ldi	r18, 0x0F	; 15
     4e0:	2e bd       	out	0x2e, r18	; 46
     4e2:	0d b4       	in	r0, 0x2d	; 45
     4e4:	07 fe       	sbrs	r0, 7
     4e6:	fd cf       	rjmp	.-6      	; 0x4e2 <SPI_EthernetRead+0x6>
     4e8:	9e bd       	out	0x2e, r25	; 46
     4ea:	0d b4       	in	r0, 0x2d	; 45
     4ec:	07 fe       	sbrs	r0, 7
     4ee:	fd cf       	rjmp	.-6      	; 0x4ea <SPI_EthernetRead+0xe>
     4f0:	8e bd       	out	0x2e, r24	; 46
     4f2:	0d b4       	in	r0, 0x2d	; 45
     4f4:	07 fe       	sbrs	r0, 7
     4f6:	fd cf       	rjmp	.-6      	; 0x4f2 <SPI_EthernetRead+0x16>
     4f8:	1e bc       	out	0x2e, r1	; 46
     4fa:	0d b4       	in	r0, 0x2d	; 45
     4fc:	07 fe       	sbrs	r0, 7
     4fe:	fd cf       	rjmp	.-6      	; 0x4fa <SPI_EthernetRead+0x1e>
     500:	74 9a       	sbi	0x0e, 4	; 14
     502:	8e b5       	in	r24, 0x2e	; 46
     504:	08 95       	ret

00000506 <NetworkSetup>:
     506:	bf 92       	push	r11
     508:	cf 92       	push	r12
     50a:	df 92       	push	r13
     50c:	ef 92       	push	r14
     50e:	ff 92       	push	r15
     510:	0f 93       	push	r16
     512:	1f 93       	push	r17
     514:	cf 93       	push	r28
     516:	df 93       	push	r29
     518:	ec 01       	movw	r28, r24
     51a:	8b 01       	movw	r16, r22
     51c:	6a 01       	movw	r12, r20
     51e:	79 01       	movw	r14, r18
     520:	6c 9a       	sbi	0x0d, 4	; 13
     522:	87 e0       	ldi	r24, 0x07	; 7
     524:	84 b9       	out	0x04, r24	; 4
     526:	74 9a       	sbi	0x0e, 4	; 14
     528:	80 e5       	ldi	r24, 0x50	; 80
     52a:	8c bd       	out	0x2c, r24	; 44
     52c:	82 ed       	ldi	r24, 0xD2	; 210
     52e:	93 e0       	ldi	r25, 0x03	; 3
     530:	0e 94 26 10 	call	0x204c	; 0x204c <puts>
     534:	84 ee       	ldi	r24, 0xE4	; 228
     536:	93 e0       	ldi	r25, 0x03	; 3
     538:	0e 94 26 10 	call	0x204c	; 0x204c <puts>
     53c:	60 e8       	ldi	r22, 0x80	; 128
     53e:	80 e0       	ldi	r24, 0x00	; 0
     540:	90 e0       	ldi	r25, 0x00	; 0
     542:	b8 df       	rcall	.-144    	; 0x4b4 <SPI_EthernetWrite>
     544:	8f ec       	ldi	r24, 0xCF	; 207
     546:	97 e0       	ldi	r25, 0x07	; 7
     548:	01 97       	sbiw	r24, 0x01	; 1
     54a:	f1 f7       	brne	.-4      	; 0x548 <NetworkSetup+0x42>
     54c:	00 c0       	rjmp	.+0      	; 0x54e <NetworkSetup+0x48>
     54e:	00 00       	nop
     550:	80 e0       	ldi	r24, 0x00	; 0
     552:	90 e0       	ldi	r25, 0x00	; 0
     554:	c3 df       	rcall	.-122    	; 0x4dc <SPI_EthernetRead>
     556:	1f 92       	push	r1
     558:	8f 93       	push	r24
     55a:	8d ef       	ldi	r24, 0xFD	; 253
     55c:	93 e0       	ldi	r25, 0x03	; 3
     55e:	9f 93       	push	r25
     560:	8f 93       	push	r24
     562:	0e 94 10 10 	call	0x2020	; 0x2020 <printf>
     566:	f7 01       	movw	r30, r14
     568:	83 81       	ldd	r24, Z+3	; 0x03
     56a:	1f 92       	push	r1
     56c:	8f 93       	push	r24
     56e:	82 81       	ldd	r24, Z+2	; 0x02
     570:	1f 92       	push	r1
     572:	8f 93       	push	r24
     574:	81 81       	ldd	r24, Z+1	; 0x01
     576:	1f 92       	push	r1
     578:	8f 93       	push	r24
     57a:	80 81       	ld	r24, Z
     57c:	1f 92       	push	r1
     57e:	8f 93       	push	r24
     580:	8e e0       	ldi	r24, 0x0E	; 14
     582:	94 e0       	ldi	r25, 0x04	; 4
     584:	9f 93       	push	r25
     586:	8f 93       	push	r24
     588:	0e 94 10 10 	call	0x2020	; 0x2020 <printf>
     58c:	f7 01       	movw	r30, r14
     58e:	60 81       	ld	r22, Z
     590:	81 e0       	ldi	r24, 0x01	; 1
     592:	90 e0       	ldi	r25, 0x00	; 0
     594:	8f df       	rcall	.-226    	; 0x4b4 <SPI_EthernetWrite>
     596:	f7 01       	movw	r30, r14
     598:	61 81       	ldd	r22, Z+1	; 0x01
     59a:	82 e0       	ldi	r24, 0x02	; 2
     59c:	90 e0       	ldi	r25, 0x00	; 0
     59e:	8a df       	rcall	.-236    	; 0x4b4 <SPI_EthernetWrite>
     5a0:	f7 01       	movw	r30, r14
     5a2:	62 81       	ldd	r22, Z+2	; 0x02
     5a4:	83 e0       	ldi	r24, 0x03	; 3
     5a6:	90 e0       	ldi	r25, 0x00	; 0
     5a8:	85 df       	rcall	.-246    	; 0x4b4 <SPI_EthernetWrite>
     5aa:	f7 01       	movw	r30, r14
     5ac:	63 81       	ldd	r22, Z+3	; 0x03
     5ae:	84 e0       	ldi	r24, 0x04	; 4
     5b0:	90 e0       	ldi	r25, 0x00	; 0
     5b2:	80 df       	rcall	.-256    	; 0x4b4 <SPI_EthernetWrite>
     5b4:	8f ec       	ldi	r24, 0xCF	; 207
     5b6:	97 e0       	ldi	r25, 0x07	; 7
     5b8:	01 97       	sbiw	r24, 0x01	; 1
     5ba:	f1 f7       	brne	.-4      	; 0x5b8 <NetworkSetup+0xb2>
     5bc:	00 c0       	rjmp	.+0      	; 0x5be <NetworkSetup+0xb8>
     5be:	00 00       	nop
     5c0:	84 e0       	ldi	r24, 0x04	; 4
     5c2:	90 e0       	ldi	r25, 0x00	; 0
     5c4:	8b df       	rcall	.-234    	; 0x4dc <SPI_EthernetRead>
     5c6:	b8 2e       	mov	r11, r24
     5c8:	83 e0       	ldi	r24, 0x03	; 3
     5ca:	90 e0       	ldi	r25, 0x00	; 0
     5cc:	87 df       	rcall	.-242    	; 0x4dc <SPI_EthernetRead>
     5ce:	e8 2e       	mov	r14, r24
     5d0:	82 e0       	ldi	r24, 0x02	; 2
     5d2:	90 e0       	ldi	r25, 0x00	; 0
     5d4:	83 df       	rcall	.-250    	; 0x4dc <SPI_EthernetRead>
     5d6:	f8 2e       	mov	r15, r24
     5d8:	81 e0       	ldi	r24, 0x01	; 1
     5da:	90 e0       	ldi	r25, 0x00	; 0
     5dc:	7f df       	rcall	.-258    	; 0x4dc <SPI_EthernetRead>
     5de:	1f 92       	push	r1
     5e0:	bf 92       	push	r11
     5e2:	1f 92       	push	r1
     5e4:	ef 92       	push	r14
     5e6:	1f 92       	push	r1
     5e8:	ff 92       	push	r15
     5ea:	1f 92       	push	r1
     5ec:	8f 93       	push	r24
     5ee:	83 e3       	ldi	r24, 0x33	; 51
     5f0:	94 e0       	ldi	r25, 0x04	; 4
     5f2:	9f 93       	push	r25
     5f4:	8f 93       	push	r24
     5f6:	0e 94 10 10 	call	0x2020	; 0x2020 <printf>
     5fa:	8d 81       	ldd	r24, Y+5	; 0x05
     5fc:	1f 92       	push	r1
     5fe:	8f 93       	push	r24
     600:	8c 81       	ldd	r24, Y+4	; 0x04
     602:	1f 92       	push	r1
     604:	8f 93       	push	r24
     606:	8b 81       	ldd	r24, Y+3	; 0x03
     608:	1f 92       	push	r1
     60a:	8f 93       	push	r24
     60c:	8a 81       	ldd	r24, Y+2	; 0x02
     60e:	1f 92       	push	r1
     610:	8f 93       	push	r24
     612:	89 81       	ldd	r24, Y+1	; 0x01
     614:	1f 92       	push	r1
     616:	8f 93       	push	r24
     618:	88 81       	ld	r24, Y
     61a:	1f 92       	push	r1
     61c:	8f 93       	push	r24
     61e:	8e e4       	ldi	r24, 0x4E	; 78
     620:	94 e0       	ldi	r25, 0x04	; 4
     622:	9f 93       	push	r25
     624:	8f 93       	push	r24
     626:	0e 94 10 10 	call	0x2020	; 0x2020 <printf>
     62a:	ed b7       	in	r30, 0x3d	; 61
     62c:	fe b7       	in	r31, 0x3e	; 62
     62e:	b6 96       	adiw	r30, 0x26	; 38
     630:	0f b6       	in	r0, 0x3f	; 63
     632:	f8 94       	cli
     634:	fe bf       	out	0x3e, r31	; 62
     636:	0f be       	out	0x3f, r0	; 63
     638:	ed bf       	out	0x3d, r30	; 61
     63a:	68 81       	ld	r22, Y
     63c:	89 e0       	ldi	r24, 0x09	; 9
     63e:	90 e0       	ldi	r25, 0x00	; 0
     640:	39 df       	rcall	.-398    	; 0x4b4 <SPI_EthernetWrite>
     642:	69 81       	ldd	r22, Y+1	; 0x01
     644:	8a e0       	ldi	r24, 0x0A	; 10
     646:	90 e0       	ldi	r25, 0x00	; 0
     648:	35 df       	rcall	.-406    	; 0x4b4 <SPI_EthernetWrite>
     64a:	6a 81       	ldd	r22, Y+2	; 0x02
     64c:	8b e0       	ldi	r24, 0x0B	; 11
     64e:	90 e0       	ldi	r25, 0x00	; 0
     650:	31 df       	rcall	.-414    	; 0x4b4 <SPI_EthernetWrite>
     652:	6b 81       	ldd	r22, Y+3	; 0x03
     654:	8c e0       	ldi	r24, 0x0C	; 12
     656:	90 e0       	ldi	r25, 0x00	; 0
     658:	2d df       	rcall	.-422    	; 0x4b4 <SPI_EthernetWrite>
     65a:	6c 81       	ldd	r22, Y+4	; 0x04
     65c:	8d e0       	ldi	r24, 0x0D	; 13
     65e:	90 e0       	ldi	r25, 0x00	; 0
     660:	29 df       	rcall	.-430    	; 0x4b4 <SPI_EthernetWrite>
     662:	6d 81       	ldd	r22, Y+5	; 0x05
     664:	8e e0       	ldi	r24, 0x0E	; 14
     666:	90 e0       	ldi	r25, 0x00	; 0
     668:	25 df       	rcall	.-438    	; 0x4b4 <SPI_EthernetWrite>
     66a:	8f ec       	ldi	r24, 0xCF	; 207
     66c:	97 e0       	ldi	r25, 0x07	; 7
     66e:	01 97       	sbiw	r24, 0x01	; 1
     670:	f1 f7       	brne	.-4      	; 0x66e <NetworkSetup+0x168>
     672:	00 c0       	rjmp	.+0      	; 0x674 <NetworkSetup+0x16e>
     674:	00 00       	nop
     676:	8e e0       	ldi	r24, 0x0E	; 14
     678:	90 e0       	ldi	r25, 0x00	; 0
     67a:	30 df       	rcall	.-416    	; 0x4dc <SPI_EthernetRead>
     67c:	b8 2e       	mov	r11, r24
     67e:	8d e0       	ldi	r24, 0x0D	; 13
     680:	90 e0       	ldi	r25, 0x00	; 0
     682:	2c df       	rcall	.-424    	; 0x4dc <SPI_EthernetRead>
     684:	e8 2e       	mov	r14, r24
     686:	8c e0       	ldi	r24, 0x0C	; 12
     688:	90 e0       	ldi	r25, 0x00	; 0
     68a:	28 df       	rcall	.-432    	; 0x4dc <SPI_EthernetRead>
     68c:	f8 2e       	mov	r15, r24
     68e:	8b e0       	ldi	r24, 0x0B	; 11
     690:	90 e0       	ldi	r25, 0x00	; 0
     692:	24 df       	rcall	.-440    	; 0x4dc <SPI_EthernetRead>
     694:	d8 2f       	mov	r29, r24
     696:	8a e0       	ldi	r24, 0x0A	; 10
     698:	90 e0       	ldi	r25, 0x00	; 0
     69a:	20 df       	rcall	.-448    	; 0x4dc <SPI_EthernetRead>
     69c:	c8 2f       	mov	r28, r24
     69e:	89 e0       	ldi	r24, 0x09	; 9
     6a0:	90 e0       	ldi	r25, 0x00	; 0
     6a2:	1c df       	rcall	.-456    	; 0x4dc <SPI_EthernetRead>
     6a4:	1f 92       	push	r1
     6a6:	bf 92       	push	r11
     6a8:	1f 92       	push	r1
     6aa:	ef 92       	push	r14
     6ac:	1f 92       	push	r1
     6ae:	ff 92       	push	r15
     6b0:	1f 92       	push	r1
     6b2:	df 93       	push	r29
     6b4:	1f 92       	push	r1
     6b6:	cf 93       	push	r28
     6b8:	1f 92       	push	r1
     6ba:	8f 93       	push	r24
     6bc:	84 e8       	ldi	r24, 0x84	; 132
     6be:	94 e0       	ldi	r25, 0x04	; 4
     6c0:	9f 93       	push	r25
     6c2:	8f 93       	push	r24
     6c4:	0e 94 10 10 	call	0x2020	; 0x2020 <printf>
     6c8:	f6 01       	movw	r30, r12
     6ca:	83 81       	ldd	r24, Z+3	; 0x03
     6cc:	1f 92       	push	r1
     6ce:	8f 93       	push	r24
     6d0:	82 81       	ldd	r24, Z+2	; 0x02
     6d2:	1f 92       	push	r1
     6d4:	8f 93       	push	r24
     6d6:	81 81       	ldd	r24, Z+1	; 0x01
     6d8:	1f 92       	push	r1
     6da:	8f 93       	push	r24
     6dc:	80 81       	ld	r24, Z
     6de:	1f 92       	push	r1
     6e0:	8f 93       	push	r24
     6e2:	81 eb       	ldi	r24, 0xB1	; 177
     6e4:	94 e0       	ldi	r25, 0x04	; 4
     6e6:	9f 93       	push	r25
     6e8:	8f 93       	push	r24
     6ea:	0e 94 10 10 	call	0x2020	; 0x2020 <printf>
     6ee:	f6 01       	movw	r30, r12
     6f0:	60 81       	ld	r22, Z
     6f2:	85 e0       	ldi	r24, 0x05	; 5
     6f4:	90 e0       	ldi	r25, 0x00	; 0
     6f6:	de de       	rcall	.-580    	; 0x4b4 <SPI_EthernetWrite>
     6f8:	f6 01       	movw	r30, r12
     6fa:	61 81       	ldd	r22, Z+1	; 0x01
     6fc:	86 e0       	ldi	r24, 0x06	; 6
     6fe:	90 e0       	ldi	r25, 0x00	; 0
     700:	d9 de       	rcall	.-590    	; 0x4b4 <SPI_EthernetWrite>
     702:	f6 01       	movw	r30, r12
     704:	62 81       	ldd	r22, Z+2	; 0x02
     706:	87 e0       	ldi	r24, 0x07	; 7
     708:	90 e0       	ldi	r25, 0x00	; 0
     70a:	d4 de       	rcall	.-600    	; 0x4b4 <SPI_EthernetWrite>
     70c:	f6 01       	movw	r30, r12
     70e:	63 81       	ldd	r22, Z+3	; 0x03
     710:	88 e0       	ldi	r24, 0x08	; 8
     712:	90 e0       	ldi	r25, 0x00	; 0
     714:	cf de       	rcall	.-610    	; 0x4b4 <SPI_EthernetWrite>
     716:	8f ec       	ldi	r24, 0xCF	; 207
     718:	97 e0       	ldi	r25, 0x07	; 7
     71a:	01 97       	sbiw	r24, 0x01	; 1
     71c:	f1 f7       	brne	.-4      	; 0x71a <NetworkSetup+0x214>
     71e:	00 c0       	rjmp	.+0      	; 0x720 <NetworkSetup+0x21a>
     720:	00 00       	nop
     722:	88 e0       	ldi	r24, 0x08	; 8
     724:	90 e0       	ldi	r25, 0x00	; 0
     726:	da de       	rcall	.-588    	; 0x4dc <SPI_EthernetRead>
     728:	f8 2e       	mov	r15, r24
     72a:	87 e0       	ldi	r24, 0x07	; 7
     72c:	90 e0       	ldi	r25, 0x00	; 0
     72e:	d6 de       	rcall	.-596    	; 0x4dc <SPI_EthernetRead>
     730:	d8 2f       	mov	r29, r24
     732:	86 e0       	ldi	r24, 0x06	; 6
     734:	90 e0       	ldi	r25, 0x00	; 0
     736:	d2 de       	rcall	.-604    	; 0x4dc <SPI_EthernetRead>
     738:	c8 2f       	mov	r28, r24
     73a:	85 e0       	ldi	r24, 0x05	; 5
     73c:	90 e0       	ldi	r25, 0x00	; 0
     73e:	ce de       	rcall	.-612    	; 0x4dc <SPI_EthernetRead>
     740:	1f 92       	push	r1
     742:	ff 92       	push	r15
     744:	1f 92       	push	r1
     746:	df 93       	push	r29
     748:	1f 92       	push	r1
     74a:	cf 93       	push	r28
     74c:	1f 92       	push	r1
     74e:	8f 93       	push	r24
     750:	87 ed       	ldi	r24, 0xD7	; 215
     752:	94 e0       	ldi	r25, 0x04	; 4
     754:	9f 93       	push	r25
     756:	8f 93       	push	r24
     758:	0e 94 10 10 	call	0x2020	; 0x2020 <printf>
     75c:	ed b7       	in	r30, 0x3d	; 61
     75e:	fe b7       	in	r31, 0x3e	; 62
     760:	b2 96       	adiw	r30, 0x22	; 34
     762:	0f b6       	in	r0, 0x3f	; 63
     764:	f8 94       	cli
     766:	fe bf       	out	0x3e, r31	; 62
     768:	0f be       	out	0x3f, r0	; 63
     76a:	ed bf       	out	0x3d, r30	; 61
     76c:	f8 01       	movw	r30, r16
     76e:	83 81       	ldd	r24, Z+3	; 0x03
     770:	1f 92       	push	r1
     772:	8f 93       	push	r24
     774:	82 81       	ldd	r24, Z+2	; 0x02
     776:	1f 92       	push	r1
     778:	8f 93       	push	r24
     77a:	81 81       	ldd	r24, Z+1	; 0x01
     77c:	1f 92       	push	r1
     77e:	8f 93       	push	r24
     780:	80 81       	ld	r24, Z
     782:	1f 92       	push	r1
     784:	8f 93       	push	r24
     786:	83 ef       	ldi	r24, 0xF3	; 243
     788:	94 e0       	ldi	r25, 0x04	; 4
     78a:	9f 93       	push	r25
     78c:	8f 93       	push	r24
     78e:	0e 94 10 10 	call	0x2020	; 0x2020 <printf>
     792:	f8 01       	movw	r30, r16
     794:	60 81       	ld	r22, Z
     796:	8f e0       	ldi	r24, 0x0F	; 15
     798:	90 e0       	ldi	r25, 0x00	; 0
     79a:	8c de       	rcall	.-744    	; 0x4b4 <SPI_EthernetWrite>
     79c:	f8 01       	movw	r30, r16
     79e:	61 81       	ldd	r22, Z+1	; 0x01
     7a0:	80 e1       	ldi	r24, 0x10	; 16
     7a2:	90 e0       	ldi	r25, 0x00	; 0
     7a4:	87 de       	rcall	.-754    	; 0x4b4 <SPI_EthernetWrite>
     7a6:	f8 01       	movw	r30, r16
     7a8:	62 81       	ldd	r22, Z+2	; 0x02
     7aa:	81 e1       	ldi	r24, 0x11	; 17
     7ac:	90 e0       	ldi	r25, 0x00	; 0
     7ae:	82 de       	rcall	.-764    	; 0x4b4 <SPI_EthernetWrite>
     7b0:	f8 01       	movw	r30, r16
     7b2:	63 81       	ldd	r22, Z+3	; 0x03
     7b4:	82 e1       	ldi	r24, 0x12	; 18
     7b6:	90 e0       	ldi	r25, 0x00	; 0
     7b8:	7d de       	rcall	.-774    	; 0x4b4 <SPI_EthernetWrite>
     7ba:	8f ec       	ldi	r24, 0xCF	; 207
     7bc:	97 e0       	ldi	r25, 0x07	; 7
     7be:	01 97       	sbiw	r24, 0x01	; 1
     7c0:	f1 f7       	brne	.-4      	; 0x7be <NetworkSetup+0x2b8>
     7c2:	00 c0       	rjmp	.+0      	; 0x7c4 <NetworkSetup+0x2be>
     7c4:	00 00       	nop
     7c6:	82 e1       	ldi	r24, 0x12	; 18
     7c8:	90 e0       	ldi	r25, 0x00	; 0
     7ca:	88 de       	rcall	.-752    	; 0x4dc <SPI_EthernetRead>
     7cc:	18 2f       	mov	r17, r24
     7ce:	81 e1       	ldi	r24, 0x11	; 17
     7d0:	90 e0       	ldi	r25, 0x00	; 0
     7d2:	84 de       	rcall	.-760    	; 0x4dc <SPI_EthernetRead>
     7d4:	d8 2f       	mov	r29, r24
     7d6:	80 e1       	ldi	r24, 0x10	; 16
     7d8:	90 e0       	ldi	r25, 0x00	; 0
     7da:	80 de       	rcall	.-768    	; 0x4dc <SPI_EthernetRead>
     7dc:	c8 2f       	mov	r28, r24
     7de:	8f e0       	ldi	r24, 0x0F	; 15
     7e0:	90 e0       	ldi	r25, 0x00	; 0
     7e2:	7c de       	rcall	.-776    	; 0x4dc <SPI_EthernetRead>
     7e4:	1f 92       	push	r1
     7e6:	1f 93       	push	r17
     7e8:	1f 92       	push	r1
     7ea:	df 93       	push	r29
     7ec:	1f 92       	push	r1
     7ee:	cf 93       	push	r28
     7f0:	1f 92       	push	r1
     7f2:	8f 93       	push	r24
     7f4:	83 e1       	ldi	r24, 0x13	; 19
     7f6:	95 e0       	ldi	r25, 0x05	; 5
     7f8:	9f 93       	push	r25
     7fa:	8f 93       	push	r24
     7fc:	0e 94 10 10 	call	0x2020	; 0x2020 <printf>
     800:	ed b7       	in	r30, 0x3d	; 61
     802:	fe b7       	in	r31, 0x3e	; 62
     804:	74 96       	adiw	r30, 0x14	; 20
     806:	0f b6       	in	r0, 0x3f	; 63
     808:	f8 94       	cli
     80a:	fe bf       	out	0x3e, r31	; 62
     80c:	0f be       	out	0x3f, r0	; 63
     80e:	ed bf       	out	0x3d, r30	; 61
     810:	8f e2       	ldi	r24, 0x2F	; 47
     812:	95 e0       	ldi	r25, 0x05	; 5
     814:	df 91       	pop	r29
     816:	cf 91       	pop	r28
     818:	1f 91       	pop	r17
     81a:	0f 91       	pop	r16
     81c:	ff 90       	pop	r15
     81e:	ef 90       	pop	r14
     820:	df 90       	pop	r13
     822:	cf 90       	pop	r12
     824:	bf 90       	pop	r11
     826:	0c 94 26 10 	jmp	0x204c	; 0x204c <puts>

0000082a <Server_Connect>:
     82a:	df 92       	push	r13
     82c:	ef 92       	push	r14
     82e:	ff 92       	push	r15
     830:	0f 93       	push	r16
     832:	1f 93       	push	r17
     834:	cf 93       	push	r28
     836:	df 93       	push	r29
     838:	d8 2e       	mov	r13, r24
     83a:	eb 01       	movw	r28, r22
     83c:	7a 01       	movw	r14, r20
     83e:	89 01       	movw	r16, r18
     840:	60 e1       	ldi	r22, 0x10	; 16
     842:	81 e0       	ldi	r24, 0x01	; 1
     844:	94 e0       	ldi	r25, 0x04	; 4
     846:	36 de       	rcall	.-916    	; 0x4b4 <SPI_EthernetWrite>
     848:	6d 2d       	mov	r22, r13
     84a:	80 e0       	ldi	r24, 0x00	; 0
     84c:	94 e0       	ldi	r25, 0x04	; 4
     84e:	32 de       	rcall	.-924    	; 0x4b4 <SPI_EthernetWrite>
     850:	f8 01       	movw	r30, r16
     852:	60 81       	ld	r22, Z
     854:	84 e0       	ldi	r24, 0x04	; 4
     856:	94 e0       	ldi	r25, 0x04	; 4
     858:	2d de       	rcall	.-934    	; 0x4b4 <SPI_EthernetWrite>
     85a:	f8 01       	movw	r30, r16
     85c:	61 81       	ldd	r22, Z+1	; 0x01
     85e:	85 e0       	ldi	r24, 0x05	; 5
     860:	94 e0       	ldi	r25, 0x04	; 4
     862:	28 de       	rcall	.-944    	; 0x4b4 <SPI_EthernetWrite>
     864:	61 e0       	ldi	r22, 0x01	; 1
     866:	81 e0       	ldi	r24, 0x01	; 1
     868:	94 e0       	ldi	r25, 0x04	; 4
     86a:	24 de       	rcall	.-952    	; 0x4b4 <SPI_EthernetWrite>
     86c:	83 e0       	ldi	r24, 0x03	; 3
     86e:	94 e0       	ldi	r25, 0x04	; 4
     870:	35 de       	rcall	.-918    	; 0x4dc <SPI_EthernetRead>
     872:	83 31       	cpi	r24, 0x13	; 19
     874:	29 f7       	brne	.-54     	; 0x840 <Server_Connect+0x16>
     876:	68 81       	ld	r22, Y
     878:	8c e0       	ldi	r24, 0x0C	; 12
     87a:	94 e0       	ldi	r25, 0x04	; 4
     87c:	1b de       	rcall	.-970    	; 0x4b4 <SPI_EthernetWrite>
     87e:	69 81       	ldd	r22, Y+1	; 0x01
     880:	8d e0       	ldi	r24, 0x0D	; 13
     882:	94 e0       	ldi	r25, 0x04	; 4
     884:	17 de       	rcall	.-978    	; 0x4b4 <SPI_EthernetWrite>
     886:	6a 81       	ldd	r22, Y+2	; 0x02
     888:	8e e0       	ldi	r24, 0x0E	; 14
     88a:	94 e0       	ldi	r25, 0x04	; 4
     88c:	13 de       	rcall	.-986    	; 0x4b4 <SPI_EthernetWrite>
     88e:	6b 81       	ldd	r22, Y+3	; 0x03
     890:	8f e0       	ldi	r24, 0x0F	; 15
     892:	94 e0       	ldi	r25, 0x04	; 4
     894:	0f de       	rcall	.-994    	; 0x4b4 <SPI_EthernetWrite>
     896:	f7 01       	movw	r30, r14
     898:	60 81       	ld	r22, Z
     89a:	80 e1       	ldi	r24, 0x10	; 16
     89c:	94 e0       	ldi	r25, 0x04	; 4
     89e:	0a de       	rcall	.-1004   	; 0x4b4 <SPI_EthernetWrite>
     8a0:	f7 01       	movw	r30, r14
     8a2:	61 81       	ldd	r22, Z+1	; 0x01
     8a4:	81 e1       	ldi	r24, 0x11	; 17
     8a6:	94 e0       	ldi	r25, 0x04	; 4
     8a8:	05 de       	rcall	.-1014   	; 0x4b4 <SPI_EthernetWrite>
     8aa:	64 e0       	ldi	r22, 0x04	; 4
     8ac:	81 e0       	ldi	r24, 0x01	; 1
     8ae:	94 e0       	ldi	r25, 0x04	; 4
     8b0:	01 de       	rcall	.-1022   	; 0x4b4 <SPI_EthernetWrite>
     8b2:	c0 e0       	ldi	r28, 0x00	; 0
     8b4:	d0 e0       	ldi	r29, 0x00	; 0
     8b6:	00 e1       	ldi	r16, 0x10	; 16
     8b8:	17 e2       	ldi	r17, 0x27	; 39
     8ba:	83 e0       	ldi	r24, 0x03	; 3
     8bc:	94 e0       	ldi	r25, 0x04	; 4
     8be:	0e de       	rcall	.-996    	; 0x4dc <SPI_EthernetRead>
     8c0:	87 31       	cpi	r24, 0x17	; 23
     8c2:	f1 f0       	breq	.+60     	; 0x900 <Server_Connect+0xd6>
     8c4:	87 e5       	ldi	r24, 0x57	; 87
     8c6:	92 e0       	ldi	r25, 0x02	; 2
     8c8:	01 97       	sbiw	r24, 0x01	; 1
     8ca:	f1 f7       	brne	.-4      	; 0x8c8 <Server_Connect+0x9e>
     8cc:	00 c0       	rjmp	.+0      	; 0x8ce <Server_Connect+0xa4>
     8ce:	00 00       	nop
     8d0:	21 96       	adiw	r28, 0x01	; 1
     8d2:	ce 01       	movw	r24, r28
     8d4:	b8 01       	movw	r22, r16
     8d6:	0e 94 b8 0f 	call	0x1f70	; 0x1f70 <__udivmodhi4>
     8da:	89 2b       	or	r24, r25
     8dc:	71 f7       	brne	.-36     	; 0x8ba <Server_Connect+0x90>
     8de:	8e e4       	ldi	r24, 0x4E	; 78
     8e0:	95 e0       	ldi	r25, 0x05	; 5
     8e2:	0e 94 26 10 	call	0x204c	; 0x204c <puts>
     8e6:	c1 35       	cpi	r28, 0x51	; 81
     8e8:	93 ec       	ldi	r25, 0xC3	; 195
     8ea:	d9 07       	cpc	r29, r25
     8ec:	30 f3       	brcs	.-52     	; 0x8ba <Server_Connect+0x90>
     8ee:	80 e7       	ldi	r24, 0x70	; 112
     8f0:	95 e0       	ldi	r25, 0x05	; 5
     8f2:	0e 94 26 10 	call	0x204c	; 0x204c <puts>
     8f6:	60 e1       	ldi	r22, 0x10	; 16
     8f8:	81 e0       	ldi	r24, 0x01	; 1
     8fa:	94 e0       	ldi	r25, 0x04	; 4
     8fc:	db dd       	rcall	.-1098   	; 0x4b4 <SPI_EthernetWrite>
     8fe:	10 c0       	rjmp	.+32     	; 0x920 <Server_Connect+0xf6>
     900:	83 e0       	ldi	r24, 0x03	; 3
     902:	94 e0       	ldi	r25, 0x04	; 4
     904:	eb dd       	rcall	.-1066   	; 0x4dc <SPI_EthernetRead>
     906:	87 31       	cpi	r24, 0x17	; 23
     908:	39 f4       	brne	.+14     	; 0x918 <Server_Connect+0xee>
     90a:	88 e8       	ldi	r24, 0x88	; 136
     90c:	95 e0       	ldi	r25, 0x05	; 5
     90e:	0e 94 26 10 	call	0x204c	; 0x204c <puts>
     912:	81 e0       	ldi	r24, 0x01	; 1
     914:	90 e0       	ldi	r25, 0x00	; 0
     916:	06 c0       	rjmp	.+12     	; 0x924 <Server_Connect+0xfa>
     918:	8f e9       	ldi	r24, 0x9F	; 159
     91a:	95 e0       	ldi	r25, 0x05	; 5
     91c:	0e 94 26 10 	call	0x204c	; 0x204c <puts>
     920:	80 e0       	ldi	r24, 0x00	; 0
     922:	90 e0       	ldi	r25, 0x00	; 0
     924:	df 91       	pop	r29
     926:	cf 91       	pop	r28
     928:	1f 91       	pop	r17
     92a:	0f 91       	pop	r16
     92c:	ff 90       	pop	r15
     92e:	ef 90       	pop	r14
     930:	df 90       	pop	r13
     932:	08 95       	ret

00000934 <MemoryInit>:
     934:	63 e0       	ldi	r22, 0x03	; 3
     936:	8a e1       	ldi	r24, 0x1A	; 26
     938:	90 e0       	ldi	r25, 0x00	; 0
     93a:	bc dd       	rcall	.-1160   	; 0x4b4 <SPI_EthernetWrite>
     93c:	63 e0       	ldi	r22, 0x03	; 3
     93e:	8b e1       	ldi	r24, 0x1B	; 27
     940:	90 e0       	ldi	r25, 0x00	; 0
     942:	b8 dd       	rcall	.-1168   	; 0x4b4 <SPI_EthernetWrite>
     944:	8f ef       	ldi	r24, 0xFF	; 255
     946:	9f e1       	ldi	r25, 0x1F	; 31
     948:	90 93 6b 09 	sts	0x096B, r25
     94c:	80 93 6a 09 	sts	0x096A, r24
     950:	20 e0       	ldi	r18, 0x00	; 0
     952:	30 e4       	ldi	r19, 0x40	; 64
     954:	30 93 6d 09 	sts	0x096D, r19
     958:	20 93 6c 09 	sts	0x096C, r18
     95c:	90 93 71 09 	sts	0x0971, r25
     960:	80 93 70 09 	sts	0x0970, r24
     964:	80 e0       	ldi	r24, 0x00	; 0
     966:	90 e6       	ldi	r25, 0x60	; 96
     968:	90 93 6f 09 	sts	0x096F, r25
     96c:	80 93 6e 09 	sts	0x096E, r24
     970:	08 95       	ret

00000972 <SocketCommand>:
     972:	68 2f       	mov	r22, r24
     974:	81 e0       	ldi	r24, 0x01	; 1
     976:	94 e0       	ldi	r25, 0x04	; 4
     978:	9d cd       	rjmp	.-1222   	; 0x4b4 <SPI_EthernetWrite>

0000097a <SendData>:
     97a:	6f 92       	push	r6
     97c:	7f 92       	push	r7
     97e:	8f 92       	push	r8
     980:	9f 92       	push	r9
     982:	af 92       	push	r10
     984:	bf 92       	push	r11
     986:	cf 92       	push	r12
     988:	df 92       	push	r13
     98a:	ef 92       	push	r14
     98c:	ff 92       	push	r15
     98e:	0f 93       	push	r16
     990:	1f 93       	push	r17
     992:	cf 93       	push	r28
     994:	df 93       	push	r29
     996:	5c 01       	movw	r10, r24
     998:	6b 01       	movw	r12, r22
     99a:	4a 01       	movw	r8, r20
     99c:	83 e0       	ldi	r24, 0x03	; 3
     99e:	94 e0       	ldi	r25, 0x04	; 4
     9a0:	9d dd       	rcall	.-1222   	; 0x4dc <SPI_EthernetRead>
     9a2:	1f 92       	push	r1
     9a4:	8f 93       	push	r24
     9a6:	8e eb       	ldi	r24, 0xBE	; 190
     9a8:	95 e0       	ldi	r25, 0x05	; 5
     9aa:	9f 93       	push	r25
     9ac:	8f 93       	push	r24
     9ae:	0e 94 10 10 	call	0x2020	; 0x2020 <printf>
     9b2:	83 e0       	ldi	r24, 0x03	; 3
     9b4:	94 e0       	ldi	r25, 0x04	; 4
     9b6:	92 dd       	rcall	.-1244   	; 0x4dc <SPI_EthernetRead>
     9b8:	0f 90       	pop	r0
     9ba:	0f 90       	pop	r0
     9bc:	0f 90       	pop	r0
     9be:	0f 90       	pop	r0
     9c0:	87 31       	cpi	r24, 0x17	; 23
     9c2:	a9 f4       	brne	.+42     	; 0x9ee <SendData+0x74>
     9c4:	80 e2       	ldi	r24, 0x20	; 32
     9c6:	94 e0       	ldi	r25, 0x04	; 4
     9c8:	89 dd       	rcall	.-1262   	; 0x4dc <SPI_EthernetRead>
     9ca:	08 2f       	mov	r16, r24
     9cc:	10 e0       	ldi	r17, 0x00	; 0
     9ce:	10 2f       	mov	r17, r16
     9d0:	00 27       	eor	r16, r16
     9d2:	81 e2       	ldi	r24, 0x21	; 33
     9d4:	94 e0       	ldi	r25, 0x04	; 4
     9d6:	82 dd       	rcall	.-1276   	; 0x4dc <SPI_EthernetRead>
     9d8:	08 0f       	add	r16, r24
     9da:	11 1d       	adc	r17, r1
     9dc:	5a ee       	ldi	r21, 0xEA	; 234
     9de:	65 2e       	mov	r6, r21
     9e0:	53 e0       	ldi	r21, 0x03	; 3
     9e2:	75 2e       	mov	r7, r21
     9e4:	6a ec       	ldi	r22, 0xCA	; 202
     9e6:	e6 2e       	mov	r14, r22
     9e8:	65 e0       	ldi	r22, 0x05	; 5
     9ea:	f6 2e       	mov	r15, r22
     9ec:	0b c0       	rjmp	.+22     	; 0xa04 <SendData+0x8a>
     9ee:	2a e1       	ldi	r18, 0x1A	; 26
     9f0:	32 e0       	ldi	r19, 0x02	; 2
     9f2:	4c e1       	ldi	r20, 0x1C	; 28
     9f4:	52 e0       	ldi	r21, 0x02	; 2
     9f6:	6e e1       	ldi	r22, 0x1E	; 30
     9f8:	72 e0       	ldi	r23, 0x02	; 2
     9fa:	81 e0       	ldi	r24, 0x01	; 1
     9fc:	16 df       	rcall	.-468    	; 0x82a <Server_Connect>
     9fe:	89 2b       	or	r24, r25
     a00:	b1 f3       	breq	.-20     	; 0x9ee <SendData+0x74>
     a02:	e0 cf       	rjmp	.-64     	; 0x9c4 <SendData+0x4a>
     a04:	0c 15       	cp	r16, r12
     a06:	1d 05       	cpc	r17, r13
     a08:	50 f5       	brcc	.+84     	; 0xa5e <SendData+0xe4>
     a0a:	8f ec       	ldi	r24, 0xCF	; 207
     a0c:	97 e0       	ldi	r25, 0x07	; 7
     a0e:	01 97       	sbiw	r24, 0x01	; 1
     a10:	f1 f7       	brne	.-4      	; 0xa0e <SendData+0x94>
     a12:	00 c0       	rjmp	.+0      	; 0xa14 <SendData+0x9a>
     a14:	00 00       	nop
     a16:	80 e2       	ldi	r24, 0x20	; 32
     a18:	94 e0       	ldi	r25, 0x04	; 4
     a1a:	60 dd       	rcall	.-1344   	; 0x4dc <SPI_EthernetRead>
     a1c:	08 2f       	mov	r16, r24
     a1e:	10 e0       	ldi	r17, 0x00	; 0
     a20:	10 2f       	mov	r17, r16
     a22:	00 27       	eor	r16, r16
     a24:	81 e2       	ldi	r24, 0x21	; 33
     a26:	94 e0       	ldi	r25, 0x04	; 4
     a28:	59 dd       	rcall	.-1358   	; 0x4dc <SPI_EthernetRead>
     a2a:	08 0f       	add	r16, r24
     a2c:	11 1d       	adc	r17, r1
     a2e:	1f 93       	push	r17
     a30:	0f 93       	push	r16
     a32:	ff 92       	push	r15
     a34:	ef 92       	push	r14
     a36:	0e 94 10 10 	call	0x2020	; 0x2020 <printf>
     a3a:	91 e0       	ldi	r25, 0x01	; 1
     a3c:	69 1a       	sub	r6, r25
     a3e:	71 08       	sbc	r7, r1
     a40:	0f 90       	pop	r0
     a42:	0f 90       	pop	r0
     a44:	0f 90       	pop	r0
     a46:	0f 90       	pop	r0
     a48:	61 14       	cp	r6, r1
     a4a:	71 04       	cpc	r7, r1
     a4c:	d9 f6       	brne	.-74     	; 0xa04 <SendData+0x8a>
     a4e:	88 e0       	ldi	r24, 0x08	; 8
     a50:	90 df       	rcall	.-224    	; 0x972 <SocketCommand>
     a52:	81 e0       	ldi	r24, 0x01	; 1
     a54:	94 e0       	ldi	r25, 0x04	; 4
     a56:	42 dd       	rcall	.-1404   	; 0x4dc <SPI_EthernetRead>
     a58:	81 11       	cpse	r24, r1
     a5a:	fb cf       	rjmp	.-10     	; 0xa52 <SendData+0xd8>
     a5c:	54 c0       	rjmp	.+168    	; 0xb06 <SendData+0x18c>
     a5e:	84 e2       	ldi	r24, 0x24	; 36
     a60:	94 e0       	ldi	r25, 0x04	; 4
     a62:	3c dd       	rcall	.-1416   	; 0x4dc <SPI_EthernetRead>
     a64:	e8 2e       	mov	r14, r24
     a66:	85 e2       	ldi	r24, 0x25	; 37
     a68:	94 e0       	ldi	r25, 0x04	; 4
     a6a:	38 dd       	rcall	.-1424   	; 0x4dc <SPI_EthernetRead>
     a6c:	f1 2c       	mov	r15, r1
     a6e:	fe 2c       	mov	r15, r14
     a70:	ee 24       	eor	r14, r14
     a72:	e8 0e       	add	r14, r24
     a74:	f1 1c       	adc	r15, r1
     a76:	82 e2       	ldi	r24, 0x22	; 34
     a78:	94 e0       	ldi	r25, 0x04	; 4
     a7a:	30 dd       	rcall	.-1440   	; 0x4dc <SPI_EthernetRead>
     a7c:	83 e2       	ldi	r24, 0x23	; 35
     a7e:	94 e0       	ldi	r25, 0x04	; 4
     a80:	2d dd       	rcall	.-1446   	; 0x4dc <SPI_EthernetRead>
     a82:	86 ed       	ldi	r24, 0xD6	; 214
     a84:	95 e0       	ldi	r25, 0x05	; 5
     a86:	0e 94 26 10 	call	0x204c	; 0x204c <puts>
     a8a:	00 e0       	ldi	r16, 0x00	; 0
     a8c:	10 e0       	ldi	r17, 0x00	; 0
     a8e:	38 01       	movw	r6, r16
     a90:	6e 0c       	add	r6, r14
     a92:	7f 1c       	adc	r7, r15
     a94:	0c 15       	cp	r16, r12
     a96:	1d 05       	cpc	r17, r13
     a98:	f9 f0       	breq	.+62     	; 0xad8 <SendData+0x15e>
     a9a:	c0 91 6a 09 	lds	r28, 0x096A
     a9e:	d0 91 6b 09 	lds	r29, 0x096B
     aa2:	c6 21       	and	r28, r6
     aa4:	d7 21       	and	r29, r7
     aa6:	80 91 6c 09 	lds	r24, 0x096C
     aaa:	90 91 6d 09 	lds	r25, 0x096D
     aae:	c8 0f       	add	r28, r24
     ab0:	d9 1f       	adc	r29, r25
     ab2:	81 14       	cp	r8, r1
     ab4:	91 04       	cpc	r9, r1
     ab6:	39 f0       	breq	.+14     	; 0xac6 <SendData+0x14c>
     ab8:	b8 01       	movw	r22, r16
     aba:	7c 5f       	subi	r23, 0xFC	; 252
     abc:	80 e0       	ldi	r24, 0x00	; 0
     abe:	90 e0       	ldi	r25, 0x00	; 0
     ac0:	74 d1       	rcall	.+744    	; 0xdaa <RAMReadByte>
     ac2:	68 2f       	mov	r22, r24
     ac4:	04 c0       	rjmp	.+8      	; 0xace <SendData+0x154>
     ac6:	f5 01       	movw	r30, r10
     ac8:	e0 0f       	add	r30, r16
     aca:	f1 1f       	adc	r31, r17
     acc:	60 81       	ld	r22, Z
     ace:	ce 01       	movw	r24, r28
     ad0:	f1 dc       	rcall	.-1566   	; 0x4b4 <SPI_EthernetWrite>
     ad2:	0f 5f       	subi	r16, 0xFF	; 255
     ad4:	1f 4f       	sbci	r17, 0xFF	; 255
     ad6:	db cf       	rjmp	.-74     	; 0xa8e <SendData+0x114>
     ad8:	60 e0       	ldi	r22, 0x00	; 0
     ada:	ce 01       	movw	r24, r28
     adc:	01 96       	adiw	r24, 0x01	; 1
     ade:	ea dc       	rcall	.-1580   	; 0x4b4 <SPI_EthernetWrite>
     ae0:	84 e2       	ldi	r24, 0x24	; 36
     ae2:	94 e0       	ldi	r25, 0x04	; 4
     ae4:	fb dc       	rcall	.-1546   	; 0x4dc <SPI_EthernetRead>
     ae6:	6f ef       	ldi	r22, 0xFF	; 255
     ae8:	84 e2       	ldi	r24, 0x24	; 36
     aea:	94 e0       	ldi	r25, 0x04	; 4
     aec:	e3 dc       	rcall	.-1594   	; 0x4b4 <SPI_EthernetWrite>
     aee:	66 2d       	mov	r22, r6
     af0:	85 e2       	ldi	r24, 0x25	; 37
     af2:	94 e0       	ldi	r25, 0x04	; 4
     af4:	df dc       	rcall	.-1602   	; 0x4b4 <SPI_EthernetWrite>
     af6:	80 e2       	ldi	r24, 0x20	; 32
     af8:	3c df       	rcall	.-392    	; 0x972 <SocketCommand>
     afa:	81 e0       	ldi	r24, 0x01	; 1
     afc:	94 e0       	ldi	r25, 0x04	; 4
     afe:	ee dc       	rcall	.-1572   	; 0x4dc <SPI_EthernetRead>
     b00:	81 11       	cpse	r24, r1
     b02:	fb cf       	rjmp	.-10     	; 0xafa <SendData+0x180>
     b04:	03 c0       	rjmp	.+6      	; 0xb0c <SendData+0x192>
     b06:	80 e0       	ldi	r24, 0x00	; 0
     b08:	90 e0       	ldi	r25, 0x00	; 0
     b0a:	02 c0       	rjmp	.+4      	; 0xb10 <SendData+0x196>
     b0c:	81 e0       	ldi	r24, 0x01	; 1
     b0e:	90 e0       	ldi	r25, 0x00	; 0
     b10:	df 91       	pop	r29
     b12:	cf 91       	pop	r28
     b14:	1f 91       	pop	r17
     b16:	0f 91       	pop	r16
     b18:	ff 90       	pop	r15
     b1a:	ef 90       	pop	r14
     b1c:	df 90       	pop	r13
     b1e:	cf 90       	pop	r12
     b20:	bf 90       	pop	r11
     b22:	af 90       	pop	r10
     b24:	9f 90       	pop	r9
     b26:	8f 90       	pop	r8
     b28:	7f 90       	pop	r7
     b2a:	6f 90       	pop	r6
     b2c:	08 95       	ret

00000b2e <SPI_FPGA_Write>:
     b2e:	a4 98       	cbi	0x14, 4	; 20
     b30:	8e bd       	out	0x2e, r24	; 46
     b32:	0d b4       	in	r0, 0x2d	; 45
     b34:	07 fe       	sbrs	r0, 7
     b36:	fd cf       	rjmp	.-6      	; 0xb32 <SPI_FPGA_Write+0x4>
     b38:	a4 9a       	sbi	0x14, 4	; 20
     b3a:	08 95       	ret

00000b3c <SPI_FPGA_Init>:
     b3c:	9c 9a       	sbi	0x13, 4	; 19
     b3e:	a4 9a       	sbi	0x14, 4	; 20
     b40:	e4 e0       	ldi	r30, 0x04	; 4
     b42:	f1 e0       	ldi	r31, 0x01	; 1
     b44:	80 81       	ld	r24, Z
     b46:	84 60       	ori	r24, 0x04	; 4
     b48:	80 83       	st	Z, r24
     b4a:	e5 e0       	ldi	r30, 0x05	; 5
     b4c:	f1 e0       	ldi	r31, 0x01	; 1
     b4e:	80 81       	ld	r24, Z
     b50:	8b 7f       	andi	r24, 0xFB	; 251
     b52:	80 83       	st	Z, r24
     b54:	80 e0       	ldi	r24, 0x00	; 0
     b56:	eb cf       	rjmp	.-42     	; 0xb2e <SPI_FPGA_Write>

00000b58 <FPGA_Write>:
     b58:	6a 30       	cpi	r22, 0x0A	; 10
     b5a:	21 e9       	ldi	r18, 0x91	; 145
     b5c:	72 07       	cpc	r23, r18
     b5e:	2e e1       	ldi	r18, 0x1E	; 30
     b60:	82 07       	cpc	r24, r18
     b62:	91 05       	cpc	r25, r1
     b64:	31 f0       	breq	.+12     	; 0xb72 <FPGA_Write+0x1a>
     b66:	61 31       	cpi	r22, 0x11	; 17
     b68:	75 49       	sbci	r23, 0x95	; 149
     b6a:	8e 41       	sbci	r24, 0x1E	; 30
     b6c:	91 05       	cpc	r25, r1
     b6e:	19 f0       	breq	.+6      	; 0xb76 <FPGA_Write+0x1e>
     b70:	08 95       	ret
     b72:	81 e0       	ldi	r24, 0x01	; 1
     b74:	01 c0       	rjmp	.+2      	; 0xb78 <FPGA_Write+0x20>
     b76:	82 e0       	ldi	r24, 0x02	; 2
     b78:	da cf       	rjmp	.-76     	; 0xb2e <SPI_FPGA_Write>

00000b7a <uart_sendStream>:
     b7a:	cf 93       	push	r28
     b7c:	c8 2f       	mov	r28, r24
     b7e:	8a 30       	cpi	r24, 0x0A	; 10
     b80:	11 f4       	brne	.+4      	; 0xb86 <uart_sendStream+0xc>
     b82:	8d e0       	ldi	r24, 0x0D	; 13
     b84:	fa df       	rcall	.-12     	; 0xb7a <uart_sendStream>
     b86:	80 91 d0 00 	lds	r24, 0x00D0
     b8a:	85 ff       	sbrs	r24, 5
     b8c:	fc cf       	rjmp	.-8      	; 0xb86 <uart_sendStream+0xc>
     b8e:	c0 93 d6 00 	sts	0x00D6, r28
     b92:	80 e0       	ldi	r24, 0x00	; 0
     b94:	90 e0       	ldi	r25, 0x00	; 0
     b96:	cf 91       	pop	r28
     b98:	08 95       	ret

00000b9a <uart_receiveStream>:
     b9a:	cf 93       	push	r28
     b9c:	bc 01       	movw	r22, r24
     b9e:	80 91 d0 00 	lds	r24, 0x00D0
     ba2:	87 ff       	sbrs	r24, 7
     ba4:	fc cf       	rjmp	.-8      	; 0xb9e <uart_receiveStream+0x4>
     ba6:	c0 91 d6 00 	lds	r28, 0x00D6
     baa:	8c 2f       	mov	r24, r28
     bac:	e6 df       	rcall	.-52     	; 0xb7a <uart_sendStream>
     bae:	8c 2f       	mov	r24, r28
     bb0:	90 e0       	ldi	r25, 0x00	; 0
     bb2:	cf 91       	pop	r28
     bb4:	08 95       	ret

00000bb6 <uart2_init>:
     bb6:	10 92 d5 00 	sts	0x00D5, r1
     bba:	83 e3       	ldi	r24, 0x33	; 51
     bbc:	80 93 d4 00 	sts	0x00D4, r24
     bc0:	88 e1       	ldi	r24, 0x18	; 24
     bc2:	80 93 d1 00 	sts	0x00D1, r24
     bc6:	86 e0       	ldi	r24, 0x06	; 6
     bc8:	80 93 d2 00 	sts	0x00D2, r24
     bcc:	82 e2       	ldi	r24, 0x22	; 34
     bce:	92 e0       	ldi	r25, 0x02	; 2
     bd0:	90 93 45 0a 	sts	0x0A45, r25
     bd4:	80 93 44 0a 	sts	0x0A44, r24
     bd8:	90 93 47 0a 	sts	0x0A47, r25
     bdc:	80 93 46 0a 	sts	0x0A46, r24
     be0:	08 95       	ret

00000be2 <getRAMStatus>:
     be2:	a3 98       	cbi	0x14, 3	; 20
     be4:	85 e0       	ldi	r24, 0x05	; 5
     be6:	8e bd       	out	0x2e, r24	; 46
     be8:	0d b4       	in	r0, 0x2d	; 45
     bea:	07 fe       	sbrs	r0, 7
     bec:	fd cf       	rjmp	.-6      	; 0xbe8 <getRAMStatus+0x6>
     bee:	1e bc       	out	0x2e, r1	; 46
     bf0:	0d b4       	in	r0, 0x2d	; 45
     bf2:	07 fe       	sbrs	r0, 7
     bf4:	fd cf       	rjmp	.-6      	; 0xbf0 <getRAMStatus+0xe>
     bf6:	a3 9a       	sbi	0x14, 3	; 20
     bf8:	8e b5       	in	r24, 0x2e	; 46
     bfa:	90 e0       	ldi	r25, 0x00	; 0
     bfc:	08 95       	ret

00000bfe <setRAMStatus>:
     bfe:	a3 98       	cbi	0x14, 3	; 20
     c00:	91 e0       	ldi	r25, 0x01	; 1
     c02:	9e bd       	out	0x2e, r25	; 46
     c04:	0d b4       	in	r0, 0x2d	; 45
     c06:	07 fe       	sbrs	r0, 7
     c08:	fd cf       	rjmp	.-6      	; 0xc04 <setRAMStatus+0x6>
     c0a:	8e bd       	out	0x2e, r24	; 46
     c0c:	0d b4       	in	r0, 0x2d	; 45
     c0e:	07 fe       	sbrs	r0, 7
     c10:	fd cf       	rjmp	.-6      	; 0xc0c <setRAMStatus+0xe>
     c12:	a3 9a       	sbi	0x14, 3	; 20
     c14:	08 95       	ret

00000c16 <SPI_WriteAddress>:
     c16:	26 2f       	mov	r18, r22
     c18:	97 2f       	mov	r25, r23
     c1a:	48 2f       	mov	r20, r24
     c1c:	82 e0       	ldi	r24, 0x02	; 2
     c1e:	8e bd       	out	0x2e, r24	; 46
     c20:	0d b4       	in	r0, 0x2d	; 45
     c22:	07 fe       	sbrs	r0, 7
     c24:	fd cf       	rjmp	.-6      	; 0xc20 <SPI_WriteAddress+0xa>
     c26:	4e bd       	out	0x2e, r20	; 46
     c28:	0d b4       	in	r0, 0x2d	; 45
     c2a:	07 fe       	sbrs	r0, 7
     c2c:	fd cf       	rjmp	.-6      	; 0xc28 <SPI_WriteAddress+0x12>
     c2e:	89 2f       	mov	r24, r25
     c30:	8e bd       	out	0x2e, r24	; 46
     c32:	0d b4       	in	r0, 0x2d	; 45
     c34:	07 fe       	sbrs	r0, 7
     c36:	fd cf       	rjmp	.-6      	; 0xc32 <SPI_WriteAddress+0x1c>
     c38:	2e bd       	out	0x2e, r18	; 46
     c3a:	0d b4       	in	r0, 0x2d	; 45
     c3c:	07 fe       	sbrs	r0, 7
     c3e:	fd cf       	rjmp	.-6      	; 0xc3a <SPI_WriteAddress+0x24>
     c40:	08 95       	ret

00000c42 <SPI_WriteData>:
     c42:	8e bd       	out	0x2e, r24	; 46
     c44:	0d b4       	in	r0, 0x2d	; 45
     c46:	07 fe       	sbrs	r0, 7
     c48:	fd cf       	rjmp	.-6      	; 0xc44 <SPI_WriteData+0x2>
     c4a:	08 95       	ret

00000c4c <SPI_ReadAddress>:
     c4c:	26 2f       	mov	r18, r22
     c4e:	97 2f       	mov	r25, r23
     c50:	48 2f       	mov	r20, r24
     c52:	83 e0       	ldi	r24, 0x03	; 3
     c54:	8e bd       	out	0x2e, r24	; 46
     c56:	0d b4       	in	r0, 0x2d	; 45
     c58:	07 fe       	sbrs	r0, 7
     c5a:	fd cf       	rjmp	.-6      	; 0xc56 <SPI_ReadAddress+0xa>
     c5c:	4e bd       	out	0x2e, r20	; 46
     c5e:	0d b4       	in	r0, 0x2d	; 45
     c60:	07 fe       	sbrs	r0, 7
     c62:	fd cf       	rjmp	.-6      	; 0xc5e <SPI_ReadAddress+0x12>
     c64:	89 2f       	mov	r24, r25
     c66:	8e bd       	out	0x2e, r24	; 46
     c68:	0d b4       	in	r0, 0x2d	; 45
     c6a:	07 fe       	sbrs	r0, 7
     c6c:	fd cf       	rjmp	.-6      	; 0xc68 <SPI_ReadAddress+0x1c>
     c6e:	2e bd       	out	0x2e, r18	; 46
     c70:	0d b4       	in	r0, 0x2d	; 45
     c72:	07 fe       	sbrs	r0, 7
     c74:	fd cf       	rjmp	.-6      	; 0xc70 <SPI_ReadAddress+0x24>
     c76:	08 95       	ret

00000c78 <SPI_ReadData>:
     c78:	1e bc       	out	0x2e, r1	; 46
     c7a:	0d b4       	in	r0, 0x2d	; 45
     c7c:	07 fe       	sbrs	r0, 7
     c7e:	fd cf       	rjmp	.-6      	; 0xc7a <SPI_ReadData+0x2>
     c80:	8e b5       	in	r24, 0x2e	; 46
     c82:	08 95       	ret

00000c84 <RAMWrite>:
     c84:	af 92       	push	r10
     c86:	bf 92       	push	r11
     c88:	cf 92       	push	r12
     c8a:	df 92       	push	r13
     c8c:	ef 92       	push	r14
     c8e:	ff 92       	push	r15
     c90:	0f 93       	push	r16
     c92:	1f 93       	push	r17
     c94:	cf 93       	push	r28
     c96:	df 93       	push	r29
     c98:	5c 01       	movw	r10, r24
     c9a:	6a 01       	movw	r12, r20
     c9c:	7b 01       	movw	r14, r22
     c9e:	89 01       	movw	r16, r18
     ca0:	a3 98       	cbi	0x14, 3	; 20
     ca2:	cb 01       	movw	r24, r22
     ca4:	ba 01       	movw	r22, r20
     ca6:	b7 df       	rcall	.-146    	; 0xc16 <SPI_WriteAddress>
     ca8:	80 e0       	ldi	r24, 0x00	; 0
     caa:	cb df       	rcall	.-106    	; 0xc42 <SPI_WriteData>
     cac:	a3 9a       	sbi	0x14, 3	; 20
     cae:	80 e4       	ldi	r24, 0x40	; 64
     cb0:	a6 df       	rcall	.-180    	; 0xbfe <setRAMStatus>
     cb2:	97 df       	rcall	.-210    	; 0xbe2 <getRAMStatus>
     cb4:	a3 98       	cbi	0x14, 3	; 20
     cb6:	c7 01       	movw	r24, r14
     cb8:	b6 01       	movw	r22, r12
     cba:	ad df       	rcall	.-166    	; 0xc16 <SPI_WriteAddress>
     cbc:	e5 01       	movw	r28, r10
     cbe:	0a 0d       	add	r16, r10
     cc0:	1b 1d       	adc	r17, r11
     cc2:	c0 17       	cp	r28, r16
     cc4:	d1 07       	cpc	r29, r17
     cc6:	19 f0       	breq	.+6      	; 0xcce <RAMWrite+0x4a>
     cc8:	89 91       	ld	r24, Y+
     cca:	bb df       	rcall	.-138    	; 0xc42 <SPI_WriteData>
     ccc:	fa cf       	rjmp	.-12     	; 0xcc2 <RAMWrite+0x3e>
     cce:	a3 9a       	sbi	0x14, 3	; 20
     cd0:	c6 01       	movw	r24, r12
     cd2:	df 91       	pop	r29
     cd4:	cf 91       	pop	r28
     cd6:	1f 91       	pop	r17
     cd8:	0f 91       	pop	r16
     cda:	ff 90       	pop	r15
     cdc:	ef 90       	pop	r14
     cde:	df 90       	pop	r13
     ce0:	cf 90       	pop	r12
     ce2:	bf 90       	pop	r11
     ce4:	af 90       	pop	r10
     ce6:	08 95       	ret

00000ce8 <RAMPrint>:
     ce8:	ef 92       	push	r14
     cea:	ff 92       	push	r15
     cec:	0f 93       	push	r16
     cee:	1f 93       	push	r17
     cf0:	cf 93       	push	r28
     cf2:	df 93       	push	r29
     cf4:	eb 01       	movw	r28, r22
     cf6:	18 2f       	mov	r17, r24
     cf8:	09 2f       	mov	r16, r25
     cfa:	7a 01       	movw	r14, r20
     cfc:	80 e4       	ldi	r24, 0x40	; 64
     cfe:	7f df       	rcall	.-258    	; 0xbfe <setRAMStatus>
     d00:	a3 98       	cbi	0x14, 3	; 20
     d02:	be 01       	movw	r22, r28
     d04:	81 2f       	mov	r24, r17
     d06:	90 2f       	mov	r25, r16
     d08:	a1 df       	rcall	.-190    	; 0xc4c <SPI_ReadAddress>
     d0a:	0f 93       	push	r16
     d0c:	1f 93       	push	r17
     d0e:	df 93       	push	r29
     d10:	cf 93       	push	r28
     d12:	83 e1       	ldi	r24, 0x13	; 19
     d14:	96 e0       	ldi	r25, 0x06	; 6
     d16:	9f 93       	push	r25
     d18:	8f 93       	push	r24
     d1a:	0e 94 10 10 	call	0x2020	; 0x2020 <printf>
     d1e:	0f 90       	pop	r0
     d20:	0f 90       	pop	r0
     d22:	0f 90       	pop	r0
     d24:	0f 90       	pop	r0
     d26:	0f 90       	pop	r0
     d28:	0f 90       	pop	r0
     d2a:	c0 e0       	ldi	r28, 0x00	; 0
     d2c:	d0 e0       	ldi	r29, 0x00	; 0
     d2e:	04 e2       	ldi	r16, 0x24	; 36
     d30:	16 e0       	ldi	r17, 0x06	; 6
     d32:	ce 15       	cp	r28, r14
     d34:	df 05       	cpc	r29, r15
     d36:	69 f0       	breq	.+26     	; 0xd52 <RAMPrint+0x6a>
     d38:	9f df       	rcall	.-194    	; 0xc78 <SPI_ReadData>
     d3a:	1f 92       	push	r1
     d3c:	8f 93       	push	r24
     d3e:	1f 93       	push	r17
     d40:	0f 93       	push	r16
     d42:	0e 94 10 10 	call	0x2020	; 0x2020 <printf>
     d46:	21 96       	adiw	r28, 0x01	; 1
     d48:	0f 90       	pop	r0
     d4a:	0f 90       	pop	r0
     d4c:	0f 90       	pop	r0
     d4e:	0f 90       	pop	r0
     d50:	f0 cf       	rjmp	.-32     	; 0xd32 <RAMPrint+0x4a>
     d52:	a3 9a       	sbi	0x14, 3	; 20
     d54:	df 93       	push	r29
     d56:	cf 93       	push	r28
     d58:	8c e2       	ldi	r24, 0x2C	; 44
     d5a:	96 e0       	ldi	r25, 0x06	; 6
     d5c:	9f 93       	push	r25
     d5e:	8f 93       	push	r24
     d60:	0e 94 10 10 	call	0x2020	; 0x2020 <printf>
     d64:	0f 90       	pop	r0
     d66:	0f 90       	pop	r0
     d68:	0f 90       	pop	r0
     d6a:	0f 90       	pop	r0
     d6c:	df 91       	pop	r29
     d6e:	cf 91       	pop	r28
     d70:	1f 91       	pop	r17
     d72:	0f 91       	pop	r16
     d74:	ff 90       	pop	r15
     d76:	ef 90       	pop	r14
     d78:	08 95       	ret

00000d7a <RAMWriteByte>:
     d7a:	cf 93       	push	r28
     d7c:	c8 2f       	mov	r28, r24
     d7e:	a3 98       	cbi	0x14, 3	; 20
     d80:	cb 01       	movw	r24, r22
     d82:	ba 01       	movw	r22, r20
     d84:	48 df       	rcall	.-368    	; 0xc16 <SPI_WriteAddress>
     d86:	8c 2f       	mov	r24, r28
     d88:	5c df       	rcall	.-328    	; 0xc42 <SPI_WriteData>
     d8a:	a3 9a       	sbi	0x14, 3	; 20
     d8c:	cf 91       	pop	r28
     d8e:	08 95       	ret

00000d90 <SPI_Init>:
     d90:	84 b1       	in	r24, 0x04	; 4
     d92:	87 68       	ori	r24, 0x87	; 135
     d94:	84 b9       	out	0x04, r24	; 4
     d96:	2f 9a       	sbi	0x05, 7	; 5
     d98:	9b 9a       	sbi	0x13, 3	; 19
     d9a:	a3 9a       	sbi	0x14, 3	; 20
     d9c:	83 e5       	ldi	r24, 0x53	; 83
     d9e:	8c bd       	out	0x2c, r24	; 44
     da0:	40 e0       	ldi	r20, 0x00	; 0
     da2:	50 e0       	ldi	r21, 0x00	; 0
     da4:	ba 01       	movw	r22, r20
     da6:	82 e3       	ldi	r24, 0x32	; 50
     da8:	e8 cf       	rjmp	.-48     	; 0xd7a <RAMWriteByte>

00000daa <RAMReadByte>:
     daa:	a3 98       	cbi	0x14, 3	; 20
     dac:	4f df       	rcall	.-354    	; 0xc4c <SPI_ReadAddress>
     dae:	64 df       	rcall	.-312    	; 0xc78 <SPI_ReadData>
     db0:	a3 9a       	sbi	0x14, 3	; 20
     db2:	08 95       	ret

00000db4 <SPI_Switching_Circuitry_Init>:
     db4:	e4 e0       	ldi	r30, 0x04	; 4
     db6:	f1 e0       	ldi	r31, 0x01	; 1
     db8:	80 81       	ld	r24, Z
     dba:	88 63       	ori	r24, 0x38	; 56
     dbc:	80 83       	st	Z, r24
     dbe:	e5 e0       	ldi	r30, 0x05	; 5
     dc0:	f1 e0       	ldi	r31, 0x01	; 1
     dc2:	80 81       	ld	r24, Z
     dc4:	80 62       	ori	r24, 0x20	; 32
     dc6:	80 83       	st	Z, r24
     dc8:	80 81       	ld	r24, Z
     dca:	87 7e       	andi	r24, 0xE7	; 231
     dcc:	80 83       	st	Z, r24
     dce:	08 95       	ret

00000dd0 <SPI_Switching_Circuitry_Write>:
     dd0:	8e bd       	out	0x2e, r24	; 46
     dd2:	0d b4       	in	r0, 0x2d	; 45
     dd4:	07 fe       	sbrs	r0, 7
     dd6:	fd cf       	rjmp	.-6      	; 0xdd2 <SPI_Switching_Circuitry_Write+0x2>
     dd8:	08 95       	ret

00000dda <SetShiftRegData>:
     dda:	25 e0       	ldi	r18, 0x05	; 5
     ddc:	82 9f       	mul	r24, r18
     dde:	c0 01       	movw	r24, r0
     de0:	11 24       	eor	r1, r1
     de2:	8e 58       	subi	r24, 0x8E	; 142
     de4:	96 4f       	sbci	r25, 0xF6	; 246
     de6:	20 e0       	ldi	r18, 0x00	; 0
     de8:	30 e0       	ldi	r19, 0x00	; 0
     dea:	fb 01       	movw	r30, r22
     dec:	41 91       	ld	r20, Z+
     dee:	bf 01       	movw	r22, r30
     df0:	fc 01       	movw	r30, r24
     df2:	e2 0f       	add	r30, r18
     df4:	f3 1f       	adc	r31, r19
     df6:	40 83       	st	Z, r20
     df8:	2f 5f       	subi	r18, 0xFF	; 255
     dfa:	3f 4f       	sbci	r19, 0xFF	; 255
     dfc:	25 30       	cpi	r18, 0x05	; 5
     dfe:	31 05       	cpc	r19, r1
     e00:	a1 f7       	brne	.-24     	; 0xdea <SetShiftRegData+0x10>
     e02:	08 95       	ret

00000e04 <WriteShiftRegData>:
     e04:	ef 92       	push	r14
     e06:	ff 92       	push	r15
     e08:	0f 93       	push	r16
     e0a:	1f 93       	push	r17
     e0c:	cf 93       	push	r28
     e0e:	df 93       	push	r29
     e10:	c0 e0       	ldi	r28, 0x00	; 0
     e12:	d0 e0       	ldi	r29, 0x00	; 0
     e14:	00 e0       	ldi	r16, 0x00	; 0
     e16:	10 e0       	ldi	r17, 0x00	; 0
     e18:	ce 01       	movw	r24, r28
     e1a:	89 58       	subi	r24, 0x89	; 137
     e1c:	96 4f       	sbci	r25, 0xF6	; 246
     e1e:	7c 01       	movw	r14, r24
     e20:	f7 01       	movw	r30, r14
     e22:	e0 0f       	add	r30, r16
     e24:	f1 1f       	adc	r31, r17
     e26:	80 81       	ld	r24, Z
     e28:	d3 df       	rcall	.-90     	; 0xdd0 <SPI_Switching_Circuitry_Write>
     e2a:	0f 5f       	subi	r16, 0xFF	; 255
     e2c:	1f 4f       	sbci	r17, 0xFF	; 255
     e2e:	05 30       	cpi	r16, 0x05	; 5
     e30:	11 05       	cpc	r17, r1
     e32:	b1 f7       	brne	.-20     	; 0xe20 <WriteShiftRegData+0x1c>
     e34:	25 96       	adiw	r28, 0x05	; 5
     e36:	c9 31       	cpi	r28, 0x19	; 25
     e38:	d1 05       	cpc	r29, r1
     e3a:	61 f7       	brne	.-40     	; 0xe14 <WriteShiftRegData+0x10>
     e3c:	80 91 05 01 	lds	r24, 0x0105
     e40:	80 61       	ori	r24, 0x10	; 16
     e42:	80 93 05 01 	sts	0x0105, r24
     e46:	95 e3       	ldi	r25, 0x35	; 53
     e48:	9a 95       	dec	r25
     e4a:	f1 f7       	brne	.-4      	; 0xe48 <WriteShiftRegData+0x44>
     e4c:	00 00       	nop
     e4e:	80 91 05 01 	lds	r24, 0x0105
     e52:	8f 7e       	andi	r24, 0xEF	; 239
     e54:	80 93 05 01 	sts	0x0105, r24
     e58:	df 91       	pop	r29
     e5a:	cf 91       	pop	r28
     e5c:	1f 91       	pop	r17
     e5e:	0f 91       	pop	r16
     e60:	ff 90       	pop	r15
     e62:	ef 90       	pop	r14
     e64:	08 95       	ret

00000e66 <setAtTiny2313>:
     e66:	cf 93       	push	r28
     e68:	df 93       	push	r29
     e6a:	00 d0       	rcall	.+0      	; 0xe6c <setAtTiny2313+0x6>
     e6c:	00 d0       	rcall	.+0      	; 0xe6e <setAtTiny2313+0x8>
     e6e:	1f 92       	push	r1
     e70:	cd b7       	in	r28, 0x3d	; 61
     e72:	de b7       	in	r29, 0x3e	; 62
     e74:	85 e0       	ldi	r24, 0x05	; 5
     e76:	ec e6       	ldi	r30, 0x6C	; 108
     e78:	f2 e0       	ldi	r31, 0x02	; 2
     e7a:	de 01       	movw	r26, r28
     e7c:	11 96       	adiw	r26, 0x01	; 1
     e7e:	01 90       	ld	r0, Z+
     e80:	0d 92       	st	X+, r0
     e82:	8a 95       	dec	r24
     e84:	e1 f7       	brne	.-8      	; 0xe7e <setAtTiny2313+0x18>
     e86:	be 01       	movw	r22, r28
     e88:	6f 5f       	subi	r22, 0xFF	; 255
     e8a:	7f 4f       	sbci	r23, 0xFF	; 255
     e8c:	81 e0       	ldi	r24, 0x01	; 1
     e8e:	a5 df       	rcall	.-182    	; 0xdda <SetShiftRegData>
     e90:	19 82       	std	Y+1, r1	; 0x01
     e92:	1a 82       	std	Y+2, r1	; 0x02
     e94:	88 e0       	ldi	r24, 0x08	; 8
     e96:	8b 83       	std	Y+3, r24	; 0x03
     e98:	1c 82       	std	Y+4, r1	; 0x04
     e9a:	1d 82       	std	Y+5, r1	; 0x05
     e9c:	be 01       	movw	r22, r28
     e9e:	6f 5f       	subi	r22, 0xFF	; 255
     ea0:	7f 4f       	sbci	r23, 0xFF	; 255
     ea2:	82 e0       	ldi	r24, 0x02	; 2
     ea4:	9a df       	rcall	.-204    	; 0xdda <SetShiftRegData>
     ea6:	19 82       	std	Y+1, r1	; 0x01
     ea8:	1a 82       	std	Y+2, r1	; 0x02
     eaa:	1b 82       	std	Y+3, r1	; 0x03
     eac:	1c 82       	std	Y+4, r1	; 0x04
     eae:	1d 82       	std	Y+5, r1	; 0x05
     eb0:	be 01       	movw	r22, r28
     eb2:	6f 5f       	subi	r22, 0xFF	; 255
     eb4:	7f 4f       	sbci	r23, 0xFF	; 255
     eb6:	83 e0       	ldi	r24, 0x03	; 3
     eb8:	90 df       	rcall	.-224    	; 0xdda <SetShiftRegData>
     eba:	19 82       	std	Y+1, r1	; 0x01
     ebc:	80 e2       	ldi	r24, 0x20	; 32
     ebe:	8a 83       	std	Y+2, r24	; 0x02
     ec0:	1b 82       	std	Y+3, r1	; 0x03
     ec2:	1c 82       	std	Y+4, r1	; 0x04
     ec4:	1d 82       	std	Y+5, r1	; 0x05
     ec6:	be 01       	movw	r22, r28
     ec8:	6f 5f       	subi	r22, 0xFF	; 255
     eca:	7f 4f       	sbci	r23, 0xFF	; 255
     ecc:	84 e0       	ldi	r24, 0x04	; 4
     ece:	85 df       	rcall	.-246    	; 0xdda <SetShiftRegData>
     ed0:	19 82       	std	Y+1, r1	; 0x01
     ed2:	1a 82       	std	Y+2, r1	; 0x02
     ed4:	1b 82       	std	Y+3, r1	; 0x03
     ed6:	84 e0       	ldi	r24, 0x04	; 4
     ed8:	8c 83       	std	Y+4, r24	; 0x04
     eda:	1d 82       	std	Y+5, r1	; 0x05
     edc:	be 01       	movw	r22, r28
     ede:	6f 5f       	subi	r22, 0xFF	; 255
     ee0:	7f 4f       	sbci	r23, 0xFF	; 255
     ee2:	85 e0       	ldi	r24, 0x05	; 5
     ee4:	7a df       	rcall	.-268    	; 0xdda <SetShiftRegData>
     ee6:	8e df       	rcall	.-228    	; 0xe04 <WriteShiftRegData>
     ee8:	0f 90       	pop	r0
     eea:	0f 90       	pop	r0
     eec:	0f 90       	pop	r0
     eee:	0f 90       	pop	r0
     ef0:	0f 90       	pop	r0
     ef2:	df 91       	pop	r29
     ef4:	cf 91       	pop	r28
     ef6:	08 95       	ret

00000ef8 <setAtMega324PA>:
     ef8:	cf 93       	push	r28
     efa:	df 93       	push	r29
     efc:	00 d0       	rcall	.+0      	; 0xefe <setAtMega324PA+0x6>
     efe:	00 d0       	rcall	.+0      	; 0xf00 <setAtMega324PA+0x8>
     f00:	1f 92       	push	r1
     f02:	cd b7       	in	r28, 0x3d	; 61
     f04:	de b7       	in	r29, 0x3e	; 62
     f06:	85 e0       	ldi	r24, 0x05	; 5
     f08:	ec e6       	ldi	r30, 0x6C	; 108
     f0a:	f2 e0       	ldi	r31, 0x02	; 2
     f0c:	de 01       	movw	r26, r28
     f0e:	11 96       	adiw	r26, 0x01	; 1
     f10:	01 90       	ld	r0, Z+
     f12:	0d 92       	st	X+, r0
     f14:	8a 95       	dec	r24
     f16:	e1 f7       	brne	.-8      	; 0xf10 <setAtMega324PA+0x18>
     f18:	be 01       	movw	r22, r28
     f1a:	6f 5f       	subi	r22, 0xFF	; 255
     f1c:	7f 4f       	sbci	r23, 0xFF	; 255
     f1e:	81 e0       	ldi	r24, 0x01	; 1
     f20:	5c df       	rcall	.-328    	; 0xdda <SetShiftRegData>
     f22:	19 82       	std	Y+1, r1	; 0x01
     f24:	80 e4       	ldi	r24, 0x40	; 64
     f26:	8a 83       	std	Y+2, r24	; 0x02
     f28:	1b 82       	std	Y+3, r1	; 0x03
     f2a:	84 e0       	ldi	r24, 0x04	; 4
     f2c:	8c 83       	std	Y+4, r24	; 0x04
     f2e:	1d 82       	std	Y+5, r1	; 0x05
     f30:	be 01       	movw	r22, r28
     f32:	6f 5f       	subi	r22, 0xFF	; 255
     f34:	7f 4f       	sbci	r23, 0xFF	; 255
     f36:	82 e0       	ldi	r24, 0x02	; 2
     f38:	50 df       	rcall	.-352    	; 0xdda <SetShiftRegData>
     f3a:	19 82       	std	Y+1, r1	; 0x01
     f3c:	1a 82       	std	Y+2, r1	; 0x02
     f3e:	1b 82       	std	Y+3, r1	; 0x03
     f40:	1c 82       	std	Y+4, r1	; 0x04
     f42:	1d 82       	std	Y+5, r1	; 0x05
     f44:	be 01       	movw	r22, r28
     f46:	6f 5f       	subi	r22, 0xFF	; 255
     f48:	7f 4f       	sbci	r23, 0xFF	; 255
     f4a:	83 e0       	ldi	r24, 0x03	; 3
     f4c:	46 df       	rcall	.-372    	; 0xdda <SetShiftRegData>
     f4e:	19 82       	std	Y+1, r1	; 0x01
     f50:	80 e2       	ldi	r24, 0x20	; 32
     f52:	8a 83       	std	Y+2, r24	; 0x02
     f54:	1b 82       	std	Y+3, r1	; 0x03
     f56:	82 e0       	ldi	r24, 0x02	; 2
     f58:	8c 83       	std	Y+4, r24	; 0x04
     f5a:	1d 82       	std	Y+5, r1	; 0x05
     f5c:	be 01       	movw	r22, r28
     f5e:	6f 5f       	subi	r22, 0xFF	; 255
     f60:	7f 4f       	sbci	r23, 0xFF	; 255
     f62:	84 e0       	ldi	r24, 0x04	; 4
     f64:	3a df       	rcall	.-396    	; 0xdda <SetShiftRegData>
     f66:	19 82       	std	Y+1, r1	; 0x01
     f68:	1a 82       	std	Y+2, r1	; 0x02
     f6a:	1b 82       	std	Y+3, r1	; 0x03
     f6c:	81 e0       	ldi	r24, 0x01	; 1
     f6e:	8c 83       	std	Y+4, r24	; 0x04
     f70:	1d 82       	std	Y+5, r1	; 0x05
     f72:	be 01       	movw	r22, r28
     f74:	6f 5f       	subi	r22, 0xFF	; 255
     f76:	7f 4f       	sbci	r23, 0xFF	; 255
     f78:	85 e0       	ldi	r24, 0x05	; 5
     f7a:	2f df       	rcall	.-418    	; 0xdda <SetShiftRegData>
     f7c:	43 df       	rcall	.-378    	; 0xe04 <WriteShiftRegData>
     f7e:	0f 90       	pop	r0
     f80:	0f 90       	pop	r0
     f82:	0f 90       	pop	r0
     f84:	0f 90       	pop	r0
     f86:	0f 90       	pop	r0
     f88:	df 91       	pop	r29
     f8a:	cf 91       	pop	r28
     f8c:	08 95       	ret

00000f8e <voltageControlInit>:
     f8e:	8f ef       	ldi	r24, 0xFF	; 255
     f90:	80 bb       	out	0x10, r24	; 16
     f92:	11 ba       	out	0x11, r1	; 17
     f94:	84 b1       	in	r24, 0x04	; 4
     f96:	80 67       	ori	r24, 0x70	; 112
     f98:	84 b9       	out	0x04, r24	; 4
     f9a:	85 b1       	in	r24, 0x05	; 5
     f9c:	8f 78       	andi	r24, 0x8F	; 143
     f9e:	85 b9       	out	0x05, r24	; 5
     fa0:	08 95       	ret

00000fa2 <enableVppRegulator>:
     fa2:	2c 9a       	sbi	0x05, 4	; 5
     fa4:	08 95       	ret

00000fa6 <disableVppRegulator>:
     fa6:	2c 98       	cbi	0x05, 4	; 5
     fa8:	08 95       	ret

00000faa <enableVccRegulator>:
     faa:	2d 9a       	sbi	0x05, 5	; 5
     fac:	08 95       	ret

00000fae <disableVccRegulator>:
     fae:	2d 98       	cbi	0x05, 5	; 5
     fb0:	08 95       	ret

00000fb2 <setVcc>:
     fb2:	91 b3       	in	r25, 0x11	; 17
     fb4:	21 e0       	ldi	r18, 0x01	; 1
     fb6:	30 e0       	ldi	r19, 0x00	; 0
     fb8:	01 c0       	rjmp	.+2      	; 0xfbc <setVcc+0xa>
     fba:	22 0f       	add	r18, r18
     fbc:	8a 95       	dec	r24
     fbe:	ea f7       	brpl	.-6      	; 0xfba <setVcc+0x8>
     fc0:	92 2b       	or	r25, r18
     fc2:	91 bb       	out	0x11, r25	; 17
     fc4:	81 e0       	ldi	r24, 0x01	; 1
     fc6:	08 95       	ret

00000fc8 <setVpp>:
     fc8:	91 b3       	in	r25, 0x11	; 17
     fca:	21 e0       	ldi	r18, 0x01	; 1
     fcc:	30 e0       	ldi	r19, 0x00	; 0
     fce:	01 c0       	rjmp	.+2      	; 0xfd2 <setVpp+0xa>
     fd0:	22 0f       	add	r18, r18
     fd2:	8a 95       	dec	r24
     fd4:	ea f7       	brpl	.-6      	; 0xfd0 <setVpp+0x8>
     fd6:	92 2b       	or	r25, r18
     fd8:	91 bb       	out	0x11, r25	; 17
     fda:	81 e0       	ldi	r24, 0x01	; 1
     fdc:	08 95       	ret

00000fde <enableVLogic>:
     fde:	2e 9a       	sbi	0x05, 6	; 5
     fe0:	08 95       	ret

00000fe2 <disableVLogic>:
     fe2:	2e 98       	cbi	0x05, 6	; 5
     fe4:	08 95       	ret

00000fe6 <setVLogic>:
     fe6:	91 b3       	in	r25, 0x11	; 17
     fe8:	21 e0       	ldi	r18, 0x01	; 1
     fea:	30 e0       	ldi	r19, 0x00	; 0
     fec:	01 c0       	rjmp	.+2      	; 0xff0 <setVLogic+0xa>
     fee:	22 0f       	add	r18, r18
     ff0:	8a 95       	dec	r24
     ff2:	ea f7       	brpl	.-6      	; 0xfee <setVLogic+0x8>
     ff4:	92 2b       	or	r25, r18
     ff6:	91 bb       	out	0x11, r25	; 17
     ff8:	81 e0       	ldi	r24, 0x01	; 1
     ffa:	08 95       	ret

00000ffc <getFileWifi>:
     ffc:	2f 92       	push	r2
     ffe:	3f 92       	push	r3
    1000:	4f 92       	push	r4
    1002:	5f 92       	push	r5
    1004:	6f 92       	push	r6
    1006:	7f 92       	push	r7
    1008:	8f 92       	push	r8
    100a:	9f 92       	push	r9
    100c:	af 92       	push	r10
    100e:	bf 92       	push	r11
    1010:	cf 92       	push	r12
    1012:	df 92       	push	r13
    1014:	ef 92       	push	r14
    1016:	ff 92       	push	r15
    1018:	0f 93       	push	r16
    101a:	1f 93       	push	r17
    101c:	cf 93       	push	r28
    101e:	df 93       	push	r29
    1020:	ec 01       	movw	r28, r24
    1022:	5b 01       	movw	r10, r22
    1024:	29 01       	movw	r4, r18
    1026:	3a 01       	movw	r6, r20
    1028:	b2 d0       	rcall	.+356    	; 0x118e <enableReceiveINT>
    102a:	80 e0       	ldi	r24, 0x00	; 0
    102c:	90 e0       	ldi	r25, 0x00	; 0
    102e:	72 d0       	rcall	.+228    	; 0x1114 <setReceiveCounter>
    1030:	ae 01       	movw	r20, r28
    1032:	66 ec       	ldi	r22, 0xC6	; 198
    1034:	72 e0       	ldi	r23, 0x02	; 2
    1036:	8f ef       	ldi	r24, 0xFF	; 255
    1038:	60 d1       	rcall	.+704    	; 0x12fa <sendCommand>
    103a:	ba d0       	rcall	.+372    	; 0x11b0 <receiveStatus>
    103c:	c0 e0       	ldi	r28, 0x00	; 0
    103e:	d0 e0       	ldi	r29, 0x00	; 0
    1040:	8f ee       	ldi	r24, 0xEF	; 239
    1042:	88 2e       	mov	r8, r24
    1044:	86 e0       	ldi	r24, 0x06	; 6
    1046:	98 2e       	mov	r9, r24
    1048:	90 ed       	ldi	r25, 0xD0	; 208
    104a:	29 2e       	mov	r2, r25
    104c:	92 e0       	ldi	r25, 0x02	; 2
    104e:	39 2e       	mov	r3, r25
    1050:	a1 14       	cp	r10, r1
    1052:	b1 04       	cpc	r11, r1
    1054:	b1 f0       	breq	.+44     	; 0x1082 <getFileWifi+0x86>
    1056:	73 01       	movw	r14, r6
    1058:	62 01       	movw	r12, r4
    105a:	cc 0e       	add	r12, r28
    105c:	dd 1e       	adc	r13, r29
    105e:	e1 1c       	adc	r14, r1
    1060:	f1 1c       	adc	r15, r1
    1062:	c7 01       	movw	r24, r14
    1064:	b6 01       	movw	r22, r12
    1066:	40 d1       	rcall	.+640    	; 0x12e8 <updateRAMAddress>
    1068:	ff 92       	push	r15
    106a:	ef 92       	push	r14
    106c:	df 92       	push	r13
    106e:	cf 92       	push	r12
    1070:	9f 92       	push	r9
    1072:	8f 92       	push	r8
    1074:	d5 d7       	rcall	.+4010   	; 0x2020 <printf>
    1076:	0f 90       	pop	r0
    1078:	0f 90       	pop	r0
    107a:	0f 90       	pop	r0
    107c:	0f 90       	pop	r0
    107e:	0f 90       	pop	r0
    1080:	0f 90       	pop	r0
    1082:	40 e0       	ldi	r20, 0x00	; 0
    1084:	57 e0       	ldi	r21, 0x07	; 7
    1086:	68 e0       	ldi	r22, 0x08	; 8
    1088:	77 e0       	ldi	r23, 0x07	; 7
    108a:	8f ef       	ldi	r24, 0xFF	; 255
    108c:	36 d1       	rcall	.+620    	; 0x12fa <sendCommand>
    108e:	90 d0       	rcall	.+288    	; 0x11b0 <receiveStatus>
    1090:	28 d1       	rcall	.+592    	; 0x12e2 <getMessageHeader>
    1092:	7c 01       	movw	r14, r24
    1094:	ff 92       	push	r15
    1096:	8f 93       	push	r24
    1098:	3f 92       	push	r3
    109a:	2f 92       	push	r2
    109c:	c1 d7       	rcall	.+3970   	; 0x2020 <printf>
    109e:	0f 90       	pop	r0
    10a0:	0f 90       	pop	r0
    10a2:	0f 90       	pop	r0
    10a4:	0f 90       	pop	r0
    10a6:	f7 01       	movw	r30, r14
    10a8:	81 81       	ldd	r24, Z+1	; 0x01
    10aa:	81 33       	cpi	r24, 0x31	; 49
    10ac:	31 f0       	breq	.+12     	; 0x10ba <getFileWifi+0xbe>
    10ae:	14 d1       	rcall	.+552    	; 0x12d8 <getTransmissionLength>
    10b0:	c8 0f       	add	r28, r24
    10b2:	d9 1f       	adc	r29, r25
    10b4:	01 15       	cp	r16, r1
    10b6:	11 05       	cpc	r17, r1
    10b8:	59 f6       	brne	.-106    	; 0x1050 <getFileWifi+0x54>
    10ba:	72 d0       	rcall	.+228    	; 0x11a0 <disableReceiveINT>
    10bc:	47 ec       	ldi	r20, 0xC7	; 199
    10be:	53 e0       	ldi	r21, 0x03	; 3
    10c0:	63 eb       	ldi	r22, 0xB3	; 179
    10c2:	76 e0       	ldi	r23, 0x06	; 6
    10c4:	8f ef       	ldi	r24, 0xFF	; 255
    10c6:	19 d1       	rcall	.+562    	; 0x12fa <sendCommand>
    10c8:	81 e0       	ldi	r24, 0x01	; 1
    10ca:	90 e0       	ldi	r25, 0x00	; 0
    10cc:	df 91       	pop	r29
    10ce:	cf 91       	pop	r28
    10d0:	1f 91       	pop	r17
    10d2:	0f 91       	pop	r16
    10d4:	ff 90       	pop	r15
    10d6:	ef 90       	pop	r14
    10d8:	df 90       	pop	r13
    10da:	cf 90       	pop	r12
    10dc:	bf 90       	pop	r11
    10de:	af 90       	pop	r10
    10e0:	9f 90       	pop	r9
    10e2:	8f 90       	pop	r8
    10e4:	7f 90       	pop	r7
    10e6:	6f 90       	pop	r6
    10e8:	5f 90       	pop	r5
    10ea:	4f 90       	pop	r4
    10ec:	3f 90       	pop	r3
    10ee:	2f 90       	pop	r2
    10f0:	08 95       	ret

000010f2 <updateFileWifi>:
    10f2:	cf 93       	push	r28
    10f4:	df 93       	push	r29
    10f6:	ec 01       	movw	r28, r24
    10f8:	53 d0       	rcall	.+166    	; 0x11a0 <disableReceiveINT>
    10fa:	47 ec       	ldi	r20, 0xC7	; 199
    10fc:	53 e0       	ldi	r21, 0x03	; 3
    10fe:	be 01       	movw	r22, r28
    1100:	8f ef       	ldi	r24, 0xFF	; 255
    1102:	fb d0       	rcall	.+502    	; 0x12fa <sendCommand>
    1104:	47 ec       	ldi	r20, 0xC7	; 199
    1106:	53 e0       	ldi	r21, 0x03	; 3
    1108:	63 eb       	ldi	r22, 0xB3	; 179
    110a:	76 e0       	ldi	r23, 0x06	; 6
    110c:	8f ef       	ldi	r24, 0xFF	; 255
    110e:	df 91       	pop	r29
    1110:	cf 91       	pop	r28
    1112:	f3 c0       	rjmp	.+486    	; 0x12fa <sendCommand>

00001114 <setReceiveCounter>:
    1114:	90 93 a0 09 	sts	0x09A0, r25
    1118:	80 93 9f 09 	sts	0x099F, r24
    111c:	08 95       	ret

0000111e <uart_init>:
    111e:	10 92 c5 00 	sts	0x00C5, r1
    1122:	87 e0       	ldi	r24, 0x07	; 7
    1124:	80 93 c4 00 	sts	0x00C4, r24
    1128:	e1 ec       	ldi	r30, 0xC1	; 193
    112a:	f0 e0       	ldi	r31, 0x00	; 0
    112c:	88 e1       	ldi	r24, 0x18	; 24
    112e:	80 83       	st	Z, r24
    1130:	86 e0       	ldi	r24, 0x06	; 6
    1132:	80 93 c2 00 	sts	0x00C2, r24
    1136:	80 81       	ld	r24, Z
    1138:	80 68       	ori	r24, 0x80	; 128
    113a:	80 83       	st	Z, r24
    113c:	08 95       	ret

0000113e <uart_send>:
    113e:	10 92 ab 09 	sts	0x09AB, r1
    1142:	29 e0       	ldi	r18, 0x09	; 9
    1144:	e2 e9       	ldi	r30, 0x92	; 146
    1146:	f9 e0       	ldi	r31, 0x09	; 9
    1148:	df 01       	movw	r26, r30
    114a:	1d 92       	st	X+, r1
    114c:	2a 95       	dec	r18
    114e:	e9 f7       	brne	.-6      	; 0x114a <uart_send+0xc>
    1150:	40 e0       	ldi	r20, 0x00	; 0
    1152:	24 2f       	mov	r18, r20
    1154:	30 e0       	ldi	r19, 0x00	; 0
    1156:	26 17       	cp	r18, r22
    1158:	37 07       	cpc	r19, r23
    115a:	60 f4       	brcc	.+24     	; 0x1174 <uart_send+0x36>
    115c:	50 91 c0 00 	lds	r21, 0x00C0
    1160:	55 ff       	sbrs	r21, 5
    1162:	fc cf       	rjmp	.-8      	; 0x115c <uart_send+0x1e>
    1164:	fc 01       	movw	r30, r24
    1166:	e2 0f       	add	r30, r18
    1168:	f3 1f       	adc	r31, r19
    116a:	20 81       	ld	r18, Z
    116c:	20 93 c6 00 	sts	0x00C6, r18
    1170:	4f 5f       	subi	r20, 0xFF	; 255
    1172:	ef cf       	rjmp	.-34     	; 0x1152 <uart_send+0x14>
    1174:	88 e0       	ldi	r24, 0x08	; 8
    1176:	93 e0       	ldi	r25, 0x03	; 3
    1178:	69 d7       	rcall	.+3794   	; 0x204c <puts>
    117a:	80 e0       	ldi	r24, 0x00	; 0
    117c:	90 e0       	ldi	r25, 0x00	; 0
    117e:	08 95       	ret

00001180 <uart_receiveChar>:
    1180:	80 91 c0 00 	lds	r24, 0x00C0
    1184:	87 ff       	sbrs	r24, 7
    1186:	fc cf       	rjmp	.-8      	; 0x1180 <uart_receiveChar>
    1188:	80 91 c6 00 	lds	r24, 0x00C6
    118c:	08 95       	ret

0000118e <enableReceiveINT>:
    118e:	e1 ec       	ldi	r30, 0xC1	; 193
    1190:	f0 e0       	ldi	r31, 0x00	; 0
    1192:	80 81       	ld	r24, Z
    1194:	80 68       	ori	r24, 0x80	; 128
    1196:	80 83       	st	Z, r24
    1198:	78 94       	sei
    119a:	81 e0       	ldi	r24, 0x01	; 1
    119c:	90 e0       	ldi	r25, 0x00	; 0
    119e:	08 95       	ret

000011a0 <disableReceiveINT>:
    11a0:	e1 ec       	ldi	r30, 0xC1	; 193
    11a2:	f0 e0       	ldi	r31, 0x00	; 0
    11a4:	80 81       	ld	r24, Z
    11a6:	8f 77       	andi	r24, 0x7F	; 127
    11a8:	80 83       	st	Z, r24
    11aa:	81 e0       	ldi	r24, 0x01	; 1
    11ac:	90 e0       	ldi	r25, 0x00	; 0
    11ae:	08 95       	ret

000011b0 <receiveStatus>:
    11b0:	80 91 ab 09 	lds	r24, 0x09AB
    11b4:	81 11       	cpse	r24, r1
    11b6:	05 c0       	rjmp	.+10     	; 0x11c2 <receiveStatus+0x12>
    11b8:	81 e2       	ldi	r24, 0x21	; 33
    11ba:	8a 95       	dec	r24
    11bc:	f1 f7       	brne	.-4      	; 0x11ba <receiveStatus+0xa>
    11be:	00 00       	nop
    11c0:	f7 cf       	rjmp	.-18     	; 0x11b0 <receiveStatus>
    11c2:	81 e0       	ldi	r24, 0x01	; 1
    11c4:	90 e0       	ldi	r25, 0x00	; 0
    11c6:	08 95       	ret

000011c8 <buildTransmissionLength>:
    11c8:	0f 93       	push	r16
    11ca:	1f 93       	push	r17
    11cc:	cf 93       	push	r28
    11ce:	df 93       	push	r29
    11d0:	80 91 9d 09 	lds	r24, 0x099D
    11d4:	90 91 9e 09 	lds	r25, 0x099E
    11d8:	89 2b       	or	r24, r25
    11da:	e1 f0       	breq	.+56     	; 0x1214 <buildTransmissionLength+0x4c>
    11dc:	c0 e0       	ldi	r28, 0x00	; 0
    11de:	d0 e0       	ldi	r29, 0x00	; 0
    11e0:	04 e1       	ldi	r16, 0x14	; 20
    11e2:	17 e0       	ldi	r17, 0x07	; 7
    11e4:	fe 01       	movw	r30, r28
    11e6:	ee 56       	subi	r30, 0x6E	; 110
    11e8:	f6 4f       	sbci	r31, 0xF6	; 246
    11ea:	80 81       	ld	r24, Z
    11ec:	ff 93       	push	r31
    11ee:	ef 93       	push	r30
    11f0:	1f 92       	push	r1
    11f2:	8f 93       	push	r24
    11f4:	1f 93       	push	r17
    11f6:	0f 93       	push	r16
    11f8:	13 d7       	rcall	.+3622   	; 0x2020 <printf>
    11fa:	21 96       	adiw	r28, 0x01	; 1
    11fc:	0f 90       	pop	r0
    11fe:	0f 90       	pop	r0
    1200:	0f 90       	pop	r0
    1202:	0f 90       	pop	r0
    1204:	0f 90       	pop	r0
    1206:	0f 90       	pop	r0
    1208:	c9 30       	cpi	r28, 0x09	; 9
    120a:	d1 05       	cpc	r29, r1
    120c:	59 f7       	brne	.-42     	; 0x11e4 <buildTransmissionLength+0x1c>
    120e:	8a e0       	ldi	r24, 0x0A	; 10
    1210:	90 e0       	ldi	r25, 0x00	; 0
    1212:	17 d7       	rcall	.+3630   	; 0x2042 <putchar>
    1214:	10 92 a4 09 	sts	0x09A4, r1
    1218:	10 92 a3 09 	sts	0x09A3, r1
    121c:	80 91 a3 09 	lds	r24, 0x09A3
    1220:	90 91 a4 09 	lds	r25, 0x09A4
    1224:	20 91 98 09 	lds	r18, 0x0998
    1228:	2f 70       	andi	r18, 0x0F	; 15
    122a:	82 0f       	add	r24, r18
    122c:	91 1d       	adc	r25, r1
    122e:	90 93 a4 09 	sts	0x09A4, r25
    1232:	80 93 a3 09 	sts	0x09A3, r24
    1236:	80 91 a3 09 	lds	r24, 0x09A3
    123a:	90 91 a4 09 	lds	r25, 0x09A4
    123e:	20 91 97 09 	lds	r18, 0x0997
    1242:	2f 70       	andi	r18, 0x0F	; 15
    1244:	3a e0       	ldi	r19, 0x0A	; 10
    1246:	23 9f       	mul	r18, r19
    1248:	80 0d       	add	r24, r0
    124a:	91 1d       	adc	r25, r1
    124c:	11 24       	eor	r1, r1
    124e:	90 93 a4 09 	sts	0x09A4, r25
    1252:	80 93 a3 09 	sts	0x09A3, r24
    1256:	80 91 a3 09 	lds	r24, 0x09A3
    125a:	90 91 a4 09 	lds	r25, 0x09A4
    125e:	20 91 96 09 	lds	r18, 0x0996
    1262:	2f 70       	andi	r18, 0x0F	; 15
    1264:	34 e6       	ldi	r19, 0x64	; 100
    1266:	23 9f       	mul	r18, r19
    1268:	80 0d       	add	r24, r0
    126a:	91 1d       	adc	r25, r1
    126c:	11 24       	eor	r1, r1
    126e:	90 93 a4 09 	sts	0x09A4, r25
    1272:	80 93 a3 09 	sts	0x09A3, r24
    1276:	20 91 a3 09 	lds	r18, 0x09A3
    127a:	30 91 a4 09 	lds	r19, 0x09A4
    127e:	60 91 95 09 	lds	r22, 0x0995
    1282:	6f 70       	andi	r22, 0x0F	; 15
    1284:	48 ee       	ldi	r20, 0xE8	; 232
    1286:	53 e0       	ldi	r21, 0x03	; 3
    1288:	64 9f       	mul	r22, r20
    128a:	c0 01       	movw	r24, r0
    128c:	65 9f       	mul	r22, r21
    128e:	90 0d       	add	r25, r0
    1290:	11 24       	eor	r1, r1
    1292:	82 0f       	add	r24, r18
    1294:	93 1f       	adc	r25, r19
    1296:	90 93 a4 09 	sts	0x09A4, r25
    129a:	80 93 a3 09 	sts	0x09A3, r24
    129e:	20 91 a3 09 	lds	r18, 0x09A3
    12a2:	30 91 a4 09 	lds	r19, 0x09A4
    12a6:	60 91 94 09 	lds	r22, 0x0994
    12aa:	6f 70       	andi	r22, 0x0F	; 15
    12ac:	40 e1       	ldi	r20, 0x10	; 16
    12ae:	57 e2       	ldi	r21, 0x27	; 39
    12b0:	64 9f       	mul	r22, r20
    12b2:	c0 01       	movw	r24, r0
    12b4:	65 9f       	mul	r22, r21
    12b6:	90 0d       	add	r25, r0
    12b8:	11 24       	eor	r1, r1
    12ba:	82 0f       	add	r24, r18
    12bc:	93 1f       	adc	r25, r19
    12be:	90 93 a4 09 	sts	0x09A4, r25
    12c2:	80 93 a3 09 	sts	0x09A3, r24
    12c6:	80 91 a3 09 	lds	r24, 0x09A3
    12ca:	90 91 a4 09 	lds	r25, 0x09A4
    12ce:	df 91       	pop	r29
    12d0:	cf 91       	pop	r28
    12d2:	1f 91       	pop	r17
    12d4:	0f 91       	pop	r16
    12d6:	08 95       	ret

000012d8 <getTransmissionLength>:
    12d8:	80 91 a3 09 	lds	r24, 0x09A3
    12dc:	90 91 a4 09 	lds	r25, 0x09A4
    12e0:	08 95       	ret

000012e2 <getMessageHeader>:
    12e2:	82 e9       	ldi	r24, 0x92	; 146
    12e4:	99 e0       	ldi	r25, 0x09	; 9
    12e6:	08 95       	ret

000012e8 <updateRAMAddress>:
    12e8:	60 93 a5 09 	sts	0x09A5, r22
    12ec:	70 93 a6 09 	sts	0x09A6, r23
    12f0:	80 93 a7 09 	sts	0x09A7, r24
    12f4:	90 93 a8 09 	sts	0x09A8, r25
    12f8:	08 95       	ret

000012fa <sendCommand>:
    12fa:	0f 93       	push	r16
    12fc:	1f 93       	push	r17
    12fe:	cf 93       	push	r28
    1300:	df 93       	push	r29
    1302:	8b 01       	movw	r16, r22
    1304:	ea 01       	movw	r28, r20
    1306:	81 30       	cpi	r24, 0x01	; 1
    1308:	31 f0       	breq	.+12     	; 0x1316 <sendCommand+0x1c>
    130a:	82 30       	cpi	r24, 0x02	; 2
    130c:	51 f0       	breq	.+20     	; 0x1322 <sendCommand+0x28>
    130e:	8f 3f       	cpi	r24, 0xFF	; 255
    1310:	09 f0       	breq	.+2      	; 0x1314 <sendCommand+0x1a>
    1312:	4f c0       	rjmp	.+158    	; 0x13b2 <sendCommand+0xb8>
    1314:	0b c0       	rjmp	.+22     	; 0x132c <sendCommand+0x32>
    1316:	6b ec       	ldi	r22, 0xCB	; 203
    1318:	72 e0       	ldi	r23, 0x02	; 2
    131a:	8c ea       	ldi	r24, 0xAC	; 172
    131c:	99 e0       	ldi	r25, 0x09	; 9
    131e:	47 d6       	rcall	.+3214   	; 0x1fae <strcpy>
    1320:	05 c0       	rjmp	.+10     	; 0x132c <sendCommand+0x32>
    1322:	60 e3       	ldi	r22, 0x30	; 48
    1324:	77 e0       	ldi	r23, 0x07	; 7
    1326:	8c ea       	ldi	r24, 0xAC	; 172
    1328:	99 e0       	ldi	r25, 0x09	; 9
    132a:	36 d6       	rcall	.+3180   	; 0x1f98 <strcat>
    132c:	b8 01       	movw	r22, r16
    132e:	8c ea       	ldi	r24, 0xAC	; 172
    1330:	99 e0       	ldi	r25, 0x09	; 9
    1332:	32 d6       	rcall	.+3172   	; 0x1f98 <strcat>
    1334:	83 e0       	ldi	r24, 0x03	; 3
    1336:	c7 3c       	cpi	r28, 0xC7	; 199
    1338:	d8 07       	cpc	r29, r24
    133a:	49 f0       	breq	.+18     	; 0x134e <sendCommand+0x54>
    133c:	64 e7       	ldi	r22, 0x74	; 116
    133e:	73 e0       	ldi	r23, 0x03	; 3
    1340:	8c ea       	ldi	r24, 0xAC	; 172
    1342:	99 e0       	ldi	r25, 0x09	; 9
    1344:	29 d6       	rcall	.+3154   	; 0x1f98 <strcat>
    1346:	be 01       	movw	r22, r28
    1348:	8c ea       	ldi	r24, 0xAC	; 172
    134a:	99 e0       	ldi	r25, 0x09	; 9
    134c:	25 d6       	rcall	.+3146   	; 0x1f98 <strcat>
    134e:	61 e7       	ldi	r22, 0x71	; 113
    1350:	72 e0       	ldi	r23, 0x02	; 2
    1352:	8c ea       	ldi	r24, 0xAC	; 172
    1354:	99 e0       	ldi	r25, 0x09	; 9
    1356:	20 d6       	rcall	.+3136   	; 0x1f98 <strcat>
    1358:	0c ea       	ldi	r16, 0xAC	; 172
    135a:	19 e0       	ldi	r17, 0x09	; 9
    135c:	e8 01       	movw	r28, r16
    135e:	09 90       	ld	r0, Y+
    1360:	00 20       	and	r0, r0
    1362:	e9 f7       	brne	.-6      	; 0x135e <sendCommand+0x64>
    1364:	21 97       	sbiw	r28, 0x01	; 1
    1366:	cc 5a       	subi	r28, 0xAC	; 172
    1368:	d9 40       	sbci	r29, 0x09	; 9
    136a:	1f 93       	push	r17
    136c:	0f 93       	push	r16
    136e:	df 93       	push	r29
    1370:	cf 93       	push	r28
    1372:	1f 93       	push	r17
    1374:	0f 93       	push	r16
    1376:	85 e3       	ldi	r24, 0x35	; 53
    1378:	97 e0       	ldi	r25, 0x07	; 7
    137a:	9f 93       	push	r25
    137c:	8f 93       	push	r24
    137e:	50 d6       	rcall	.+3232   	; 0x2020 <printf>
    1380:	be 01       	movw	r22, r28
    1382:	c8 01       	movw	r24, r16
    1384:	dc de       	rcall	.-584    	; 0x113e <uart_send>
    1386:	84 e6       	ldi	r24, 0x64	; 100
    1388:	f8 01       	movw	r30, r16
    138a:	11 92       	st	Z+, r1
    138c:	8a 95       	dec	r24
    138e:	e9 f7       	brne	.-6      	; 0x138a <sendCommand+0x90>
    1390:	8a e5       	ldi	r24, 0x5A	; 90
    1392:	97 e0       	ldi	r25, 0x07	; 7
    1394:	5b d6       	rcall	.+3254   	; 0x204c <puts>
    1396:	81 e6       	ldi	r24, 0x61	; 97
    1398:	97 e0       	ldi	r25, 0x07	; 7
    139a:	58 d6       	rcall	.+3248   	; 0x204c <puts>
    139c:	8d b7       	in	r24, 0x3d	; 61
    139e:	9e b7       	in	r25, 0x3e	; 62
    13a0:	08 96       	adiw	r24, 0x08	; 8
    13a2:	0f b6       	in	r0, 0x3f	; 63
    13a4:	f8 94       	cli
    13a6:	9e bf       	out	0x3e, r25	; 62
    13a8:	0f be       	out	0x3f, r0	; 63
    13aa:	8d bf       	out	0x3d, r24	; 61
    13ac:	81 e0       	ldi	r24, 0x01	; 1
    13ae:	90 e0       	ldi	r25, 0x00	; 0
    13b0:	02 c0       	rjmp	.+4      	; 0x13b6 <sendCommand+0xbc>
    13b2:	80 e0       	ldi	r24, 0x00	; 0
    13b4:	90 e0       	ldi	r25, 0x00	; 0
    13b6:	df 91       	pop	r29
    13b8:	cf 91       	pop	r28
    13ba:	1f 91       	pop	r17
    13bc:	0f 91       	pop	r16
    13be:	08 95       	ret

000013c0 <__vector_25>:
    13c0:	1f 92       	push	r1
    13c2:	0f 92       	push	r0
    13c4:	0f b6       	in	r0, 0x3f	; 63
    13c6:	0f 92       	push	r0
    13c8:	11 24       	eor	r1, r1
    13ca:	0b b6       	in	r0, 0x3b	; 59
    13cc:	0f 92       	push	r0
    13ce:	2f 93       	push	r18
    13d0:	3f 93       	push	r19
    13d2:	4f 93       	push	r20
    13d4:	5f 93       	push	r21
    13d6:	6f 93       	push	r22
    13d8:	7f 93       	push	r23
    13da:	8f 93       	push	r24
    13dc:	9f 93       	push	r25
    13de:	af 93       	push	r26
    13e0:	bf 93       	push	r27
    13e2:	cf 93       	push	r28
    13e4:	df 93       	push	r29
    13e6:	ef 93       	push	r30
    13e8:	ff 93       	push	r31
    13ea:	f8 94       	cli
    13ec:	80 91 a9 09 	lds	r24, 0x09A9
    13f0:	90 91 aa 09 	lds	r25, 0x09AA
    13f4:	89 2b       	or	r24, r25
    13f6:	e1 f4       	brne	.+56     	; 0x1430 <__vector_25+0x70>
    13f8:	c3 de       	rcall	.-634    	; 0x1180 <uart_receiveChar>
    13fa:	80 93 9b 09 	sts	0x099B, r24
    13fe:	80 91 9b 09 	lds	r24, 0x099B
    1402:	82 35       	cpi	r24, 0x52	; 82
    1404:	09 f0       	breq	.+2      	; 0x1408 <__vector_25+0x48>
    1406:	8c c0       	rjmp	.+280    	; 0x1520 <__vector_25+0x160>
    1408:	10 92 a0 09 	sts	0x09A0, r1
    140c:	10 92 9f 09 	sts	0x099F, r1
    1410:	e0 91 9f 09 	lds	r30, 0x099F
    1414:	f0 91 a0 09 	lds	r31, 0x09A0
    1418:	80 91 9b 09 	lds	r24, 0x099B
    141c:	ee 56       	subi	r30, 0x6E	; 110
    141e:	f6 4f       	sbci	r31, 0xF6	; 246
    1420:	80 83       	st	Z, r24
    1422:	81 e0       	ldi	r24, 0x01	; 1
    1424:	90 e0       	ldi	r25, 0x00	; 0
    1426:	90 93 aa 09 	sts	0x09AA, r25
    142a:	80 93 a9 09 	sts	0x09A9, r24
    142e:	78 c0       	rjmp	.+240    	; 0x1520 <__vector_25+0x160>
    1430:	80 91 9f 09 	lds	r24, 0x099F
    1434:	90 91 a0 09 	lds	r25, 0x09A0
    1438:	09 97       	sbiw	r24, 0x09	; 9
    143a:	48 f4       	brcc	.+18     	; 0x144e <__vector_25+0x8e>
    143c:	c0 91 9f 09 	lds	r28, 0x099F
    1440:	d0 91 a0 09 	lds	r29, 0x09A0
    1444:	9d de       	rcall	.-710    	; 0x1180 <uart_receiveChar>
    1446:	ce 56       	subi	r28, 0x6E	; 110
    1448:	d6 4f       	sbci	r29, 0xF6	; 246
    144a:	88 83       	st	Y, r24
    144c:	69 c0       	rjmp	.+210    	; 0x1520 <__vector_25+0x160>
    144e:	80 91 9f 09 	lds	r24, 0x099F
    1452:	90 91 a0 09 	lds	r25, 0x09A0
    1456:	09 97       	sbiw	r24, 0x09	; 9
    1458:	31 f4       	brne	.+12     	; 0x1466 <__vector_25+0xa6>
    145a:	b6 de       	rcall	.-660    	; 0x11c8 <buildTransmissionLength>
    145c:	90 93 a4 09 	sts	0x09A4, r25
    1460:	80 93 a3 09 	sts	0x09A3, r24
    1464:	5d c0       	rjmp	.+186    	; 0x1520 <__vector_25+0x160>
    1466:	20 91 9f 09 	lds	r18, 0x099F
    146a:	30 91 a0 09 	lds	r19, 0x09A0
    146e:	80 91 a3 09 	lds	r24, 0x09A3
    1472:	90 91 a4 09 	lds	r25, 0x09A4
    1476:	09 96       	adiw	r24, 0x09	; 9
    1478:	28 17       	cp	r18, r24
    147a:	39 07       	cpc	r19, r25
    147c:	d8 f4       	brcc	.+54     	; 0x14b4 <__vector_25+0xf4>
    147e:	80 de       	rcall	.-768    	; 0x1180 <uart_receiveChar>
    1480:	80 93 9b 09 	sts	0x099B, r24
    1484:	40 91 a5 09 	lds	r20, 0x09A5
    1488:	50 91 a6 09 	lds	r21, 0x09A6
    148c:	60 91 a7 09 	lds	r22, 0x09A7
    1490:	70 91 a8 09 	lds	r23, 0x09A8
    1494:	20 91 9f 09 	lds	r18, 0x099F
    1498:	30 91 a0 09 	lds	r19, 0x09A0
    149c:	80 91 9b 09 	lds	r24, 0x099B
    14a0:	4a 50       	subi	r20, 0x0A	; 10
    14a2:	51 09       	sbc	r21, r1
    14a4:	61 09       	sbc	r22, r1
    14a6:	71 09       	sbc	r23, r1
    14a8:	42 0f       	add	r20, r18
    14aa:	53 1f       	adc	r21, r19
    14ac:	61 1d       	adc	r22, r1
    14ae:	71 1d       	adc	r23, r1
    14b0:	64 dc       	rcall	.-1848   	; 0xd7a <RAMWriteByte>
    14b2:	36 c0       	rjmp	.+108    	; 0x1520 <__vector_25+0x160>
    14b4:	40 91 a5 09 	lds	r20, 0x09A5
    14b8:	50 91 a6 09 	lds	r21, 0x09A6
    14bc:	60 91 a7 09 	lds	r22, 0x09A7
    14c0:	70 91 a8 09 	lds	r23, 0x09A8
    14c4:	80 91 9f 09 	lds	r24, 0x099F
    14c8:	90 91 a0 09 	lds	r25, 0x09A0
    14cc:	4a 50       	subi	r20, 0x0A	; 10
    14ce:	51 09       	sbc	r21, r1
    14d0:	61 09       	sbc	r22, r1
    14d2:	71 09       	sbc	r23, r1
    14d4:	48 0f       	add	r20, r24
    14d6:	59 1f       	adc	r21, r25
    14d8:	61 1d       	adc	r22, r1
    14da:	71 1d       	adc	r23, r1
    14dc:	80 e0       	ldi	r24, 0x00	; 0
    14de:	4d dc       	rcall	.-1894   	; 0xd7a <RAMWriteByte>
    14e0:	10 92 a0 09 	sts	0x09A0, r1
    14e4:	10 92 9f 09 	sts	0x099F, r1
    14e8:	10 92 aa 09 	sts	0x09AA, r1
    14ec:	10 92 a9 09 	sts	0x09A9, r1
    14f0:	10 92 a2 09 	sts	0x09A2, r1
    14f4:	10 92 a1 09 	sts	0x09A1, r1
    14f8:	10 92 9c 09 	sts	0x099C, r1
    14fc:	81 e0       	ldi	r24, 0x01	; 1
    14fe:	80 93 ab 09 	sts	0x09AB, r24
    1502:	62 de       	rcall	.-828    	; 0x11c8 <buildTransmissionLength>
    1504:	9f 93       	push	r25
    1506:	8f 93       	push	r24
    1508:	8c e6       	ldi	r24, 0x6C	; 108
    150a:	97 e0       	ldi	r25, 0x07	; 7
    150c:	9f 93       	push	r25
    150e:	8f 93       	push	r24
    1510:	87 d5       	rcall	.+2830   	; 0x2020 <printf>
    1512:	85 e8       	ldi	r24, 0x85	; 133
    1514:	97 e0       	ldi	r25, 0x07	; 7
    1516:	9a d5       	rcall	.+2868   	; 0x204c <puts>
    1518:	0f 90       	pop	r0
    151a:	0f 90       	pop	r0
    151c:	0f 90       	pop	r0
    151e:	0f 90       	pop	r0
    1520:	80 91 9f 09 	lds	r24, 0x099F
    1524:	90 91 a0 09 	lds	r25, 0x09A0
    1528:	01 96       	adiw	r24, 0x01	; 1
    152a:	90 93 a0 09 	sts	0x09A0, r25
    152e:	80 93 9f 09 	sts	0x099F, r24
    1532:	78 94       	sei
    1534:	ff 91       	pop	r31
    1536:	ef 91       	pop	r30
    1538:	df 91       	pop	r29
    153a:	cf 91       	pop	r28
    153c:	bf 91       	pop	r27
    153e:	af 91       	pop	r26
    1540:	9f 91       	pop	r25
    1542:	8f 91       	pop	r24
    1544:	7f 91       	pop	r23
    1546:	6f 91       	pop	r22
    1548:	5f 91       	pop	r21
    154a:	4f 91       	pop	r20
    154c:	3f 91       	pop	r19
    154e:	2f 91       	pop	r18
    1550:	0f 90       	pop	r0
    1552:	0b be       	out	0x3b, r0	; 59
    1554:	0f 90       	pop	r0
    1556:	0f be       	out	0x3f, r0	; 63
    1558:	0f 90       	pop	r0
    155a:	1f 90       	pop	r1
    155c:	18 95       	reti

0000155e <hexInit>:
    155e:	10 92 43 0a 	sts	0x0A43, r1
    1562:	10 92 42 0a 	sts	0x0A42, r1
    1566:	82 e3       	ldi	r24, 0x32	; 50
    1568:	e0 e1       	ldi	r30, 0x10	; 16
    156a:	fa e0       	ldi	r31, 0x0A	; 10
    156c:	df 01       	movw	r26, r30
    156e:	1d 92       	st	X+, r1
    1570:	8a 95       	dec	r24
    1572:	e9 f7       	brne	.-6      	; 0x156e <hexInit+0x10>
    1574:	08 95       	ret

00001576 <getHexRow>:
    1576:	ef 92       	push	r14
    1578:	ff 92       	push	r15
    157a:	0f 93       	push	r16
    157c:	1f 93       	push	r17
    157e:	cf 93       	push	r28
    1580:	df 93       	push	r29
    1582:	c0 e1       	ldi	r28, 0x10	; 16
    1584:	da e0       	ldi	r29, 0x0A	; 10
    1586:	60 91 42 0a 	lds	r22, 0x0A42
    158a:	70 91 43 0a 	lds	r23, 0x0A43
    158e:	80 e0       	ldi	r24, 0x00	; 0
    1590:	90 e0       	ldi	r25, 0x00	; 0
    1592:	0b dc       	rcall	.-2026   	; 0xdaa <RAMReadByte>
    1594:	89 93       	st	Y+, r24
    1596:	80 91 42 0a 	lds	r24, 0x0A42
    159a:	90 91 43 0a 	lds	r25, 0x0A43
    159e:	01 96       	adiw	r24, 0x01	; 1
    15a0:	90 93 43 0a 	sts	0x0A43, r25
    15a4:	80 93 42 0a 	sts	0x0A42, r24
    15a8:	8a e0       	ldi	r24, 0x0A	; 10
    15aa:	c5 31       	cpi	r28, 0x15	; 21
    15ac:	d8 07       	cpc	r29, r24
    15ae:	59 f7       	brne	.-42     	; 0x1586 <getHexRow+0x10>
    15b0:	e0 90 11 0a 	lds	r14, 0x0A11
    15b4:	05 e1       	ldi	r16, 0x15	; 21
    15b6:	1a e0       	ldi	r17, 0x0A	; 10
    15b8:	c0 e0       	ldi	r28, 0x00	; 0
    15ba:	d0 e0       	ldi	r29, 0x00	; 0
    15bc:	f1 2c       	mov	r15, r1
    15be:	ec 16       	cp	r14, r28
    15c0:	fd 06       	cpc	r15, r29
    15c2:	e4 f0       	brlt	.+56     	; 0x15fc <getHexRow+0x86>
    15c4:	60 91 42 0a 	lds	r22, 0x0A42
    15c8:	70 91 43 0a 	lds	r23, 0x0A43
    15cc:	80 e0       	ldi	r24, 0x00	; 0
    15ce:	90 e0       	ldi	r25, 0x00	; 0
    15d0:	ec db       	rcall	.-2088   	; 0xdaa <RAMReadByte>
    15d2:	60 91 42 0a 	lds	r22, 0x0A42
    15d6:	70 91 43 0a 	lds	r23, 0x0A43
    15da:	80 e0       	ldi	r24, 0x00	; 0
    15dc:	90 e0       	ldi	r25, 0x00	; 0
    15de:	e5 db       	rcall	.-2102   	; 0xdaa <RAMReadByte>
    15e0:	f8 01       	movw	r30, r16
    15e2:	81 93       	st	Z+, r24
    15e4:	8f 01       	movw	r16, r30
    15e6:	80 91 42 0a 	lds	r24, 0x0A42
    15ea:	90 91 43 0a 	lds	r25, 0x0A43
    15ee:	01 96       	adiw	r24, 0x01	; 1
    15f0:	90 93 43 0a 	sts	0x0A43, r25
    15f4:	80 93 42 0a 	sts	0x0A42, r24
    15f8:	21 96       	adiw	r28, 0x01	; 1
    15fa:	e1 cf       	rjmp	.-62     	; 0x15be <getHexRow+0x48>
    15fc:	80 e1       	ldi	r24, 0x10	; 16
    15fe:	9a e0       	ldi	r25, 0x0A	; 10
    1600:	df 91       	pop	r29
    1602:	cf 91       	pop	r28
    1604:	1f 91       	pop	r17
    1606:	0f 91       	pop	r16
    1608:	ff 90       	pop	r15
    160a:	ef 90       	pop	r14
    160c:	08 95       	ret

0000160e <writeHexFileTest>:
    160e:	0f 93       	push	r16
    1610:	1f 93       	push	r17
    1612:	cf 93       	push	r28
    1614:	df 93       	push	r29
    1616:	c0 e3       	ldi	r28, 0x30	; 48
    1618:	d2 e0       	ldi	r29, 0x02	; 2
    161a:	04 e2       	ldi	r16, 0x24	; 36
    161c:	16 e0       	ldi	r17, 0x06	; 6
    161e:	89 91       	ld	r24, Y+
    1620:	1f 92       	push	r1
    1622:	8f 93       	push	r24
    1624:	1f 93       	push	r17
    1626:	0f 93       	push	r16
    1628:	fb d4       	rcall	.+2550   	; 0x2020 <printf>
    162a:	0f 90       	pop	r0
    162c:	0f 90       	pop	r0
    162e:	0f 90       	pop	r0
    1630:	0f 90       	pop	r0
    1632:	82 e0       	ldi	r24, 0x02	; 2
    1634:	c2 36       	cpi	r28, 0x62	; 98
    1636:	d8 07       	cpc	r29, r24
    1638:	91 f7       	brne	.-28     	; 0x161e <writeHexFileTest+0x10>
    163a:	8a e0       	ldi	r24, 0x0A	; 10
    163c:	90 e0       	ldi	r25, 0x00	; 0
    163e:	01 d5       	rcall	.+2562   	; 0x2042 <putchar>
    1640:	22 e3       	ldi	r18, 0x32	; 50
    1642:	30 e0       	ldi	r19, 0x00	; 0
    1644:	40 e0       	ldi	r20, 0x00	; 0
    1646:	50 e0       	ldi	r21, 0x00	; 0
    1648:	ba 01       	movw	r22, r20
    164a:	80 e3       	ldi	r24, 0x30	; 48
    164c:	92 e0       	ldi	r25, 0x02	; 2
    164e:	df 91       	pop	r29
    1650:	cf 91       	pop	r28
    1652:	1f 91       	pop	r17
    1654:	0f 91       	pop	r16
    1656:	16 cb       	rjmp	.-2516   	; 0xc84 <RAMWrite>

00001658 <verifySignature>:
    1658:	cf 92       	push	r12
    165a:	df 92       	push	r13
    165c:	ef 92       	push	r14
    165e:	ff 92       	push	r15
    1660:	0f 93       	push	r16
    1662:	1f 93       	push	r17
    1664:	cf 93       	push	r28
    1666:	df 93       	push	r29
    1668:	6b 01       	movw	r12, r22
    166a:	7c 01       	movw	r14, r24
    166c:	04 d2       	rcall	.+1032   	; 0x1a76 <ReadSignatureBytes>
    166e:	ec 01       	movw	r28, r24
    1670:	8a 81       	ldd	r24, Y+2	; 0x02
    1672:	1f 92       	push	r1
    1674:	8f 93       	push	r24
    1676:	89 81       	ldd	r24, Y+1	; 0x01
    1678:	1f 92       	push	r1
    167a:	8f 93       	push	r24
    167c:	88 81       	ld	r24, Y
    167e:	1f 92       	push	r1
    1680:	8f 93       	push	r24
    1682:	85 e9       	ldi	r24, 0x95	; 149
    1684:	97 e0       	ldi	r25, 0x07	; 7
    1686:	9f 93       	push	r25
    1688:	8f 93       	push	r24
    168a:	ca d4       	rcall	.+2452   	; 0x2020 <printf>
    168c:	08 81       	ld	r16, Y
    168e:	10 e0       	ldi	r17, 0x00	; 0
    1690:	20 e0       	ldi	r18, 0x00	; 0
    1692:	30 e0       	ldi	r19, 0x00	; 0
    1694:	4e 2d       	mov	r20, r14
    1696:	50 e0       	ldi	r21, 0x00	; 0
    1698:	60 e0       	ldi	r22, 0x00	; 0
    169a:	70 e0       	ldi	r23, 0x00	; 0
    169c:	8d b7       	in	r24, 0x3d	; 61
    169e:	9e b7       	in	r25, 0x3e	; 62
    16a0:	08 96       	adiw	r24, 0x08	; 8
    16a2:	0f b6       	in	r0, 0x3f	; 63
    16a4:	f8 94       	cli
    16a6:	9e bf       	out	0x3e, r25	; 62
    16a8:	0f be       	out	0x3f, r0	; 63
    16aa:	8d bf       	out	0x3d, r24	; 61
    16ac:	04 17       	cp	r16, r20
    16ae:	15 07       	cpc	r17, r21
    16b0:	26 07       	cpc	r18, r22
    16b2:	37 07       	cpc	r19, r23
    16b4:	e9 f4       	brne	.+58     	; 0x16f0 <verifySignature+0x98>
    16b6:	09 81       	ldd	r16, Y+1	; 0x01
    16b8:	10 e0       	ldi	r17, 0x00	; 0
    16ba:	20 e0       	ldi	r18, 0x00	; 0
    16bc:	30 e0       	ldi	r19, 0x00	; 0
    16be:	4d 2d       	mov	r20, r13
    16c0:	50 e0       	ldi	r21, 0x00	; 0
    16c2:	60 e0       	ldi	r22, 0x00	; 0
    16c4:	70 e0       	ldi	r23, 0x00	; 0
    16c6:	04 17       	cp	r16, r20
    16c8:	15 07       	cpc	r17, r21
    16ca:	26 07       	cpc	r18, r22
    16cc:	37 07       	cpc	r19, r23
    16ce:	81 f4       	brne	.+32     	; 0x16f0 <verifySignature+0x98>
    16d0:	4a 81       	ldd	r20, Y+2	; 0x02
    16d2:	50 e0       	ldi	r21, 0x00	; 0
    16d4:	60 e0       	ldi	r22, 0x00	; 0
    16d6:	70 e0       	ldi	r23, 0x00	; 0
    16d8:	dd 24       	eor	r13, r13
    16da:	ee 24       	eor	r14, r14
    16dc:	ff 24       	eor	r15, r15
    16de:	81 e0       	ldi	r24, 0x01	; 1
    16e0:	90 e0       	ldi	r25, 0x00	; 0
    16e2:	4c 15       	cp	r20, r12
    16e4:	5d 05       	cpc	r21, r13
    16e6:	6e 05       	cpc	r22, r14
    16e8:	7f 05       	cpc	r23, r15
    16ea:	21 f0       	breq	.+8      	; 0x16f4 <verifySignature+0x9c>
    16ec:	80 e0       	ldi	r24, 0x00	; 0
    16ee:	02 c0       	rjmp	.+4      	; 0x16f4 <verifySignature+0x9c>
    16f0:	80 e0       	ldi	r24, 0x00	; 0
    16f2:	90 e0       	ldi	r25, 0x00	; 0
    16f4:	df 91       	pop	r29
    16f6:	cf 91       	pop	r28
    16f8:	1f 91       	pop	r17
    16fa:	0f 91       	pop	r16
    16fc:	ff 90       	pop	r15
    16fe:	ef 90       	pop	r14
    1700:	df 90       	pop	r13
    1702:	cf 90       	pop	r12
    1704:	08 95       	ret

00001706 <Program>:
    1706:	cf 92       	push	r12
    1708:	df 92       	push	r13
    170a:	ef 92       	push	r14
    170c:	ff 92       	push	r15
    170e:	cf 93       	push	r28
    1710:	df 93       	push	r29
    1712:	6b 01       	movw	r12, r22
    1714:	7c 01       	movw	r14, r24
    1716:	98 d0       	rcall	.+304    	; 0x1848 <ApplyPullDowns>
    1718:	76 d0       	rcall	.+236    	; 0x1806 <ProgInit>
    171a:	c7 01       	movw	r24, r14
    171c:	b6 01       	movw	r22, r12
    171e:	6a d1       	rcall	.+724    	; 0x19f4 <EnableProgMode>
    1720:	c7 01       	movw	r24, r14
    1722:	b6 01       	movw	r22, r12
    1724:	99 df       	rcall	.-206    	; 0x1658 <verifySignature>
    1726:	ec 01       	movw	r28, r24
    1728:	00 97       	sbiw	r24, 0x00	; 0
    172a:	f9 f0       	breq	.+62     	; 0x176a <Program+0x64>
    172c:	87 eb       	ldi	r24, 0xB7	; 183
    172e:	97 e0       	ldi	r25, 0x07	; 7
    1730:	8d d4       	rcall	.+2330   	; 0x204c <puts>
    1732:	8d ec       	ldi	r24, 0xCD	; 205
    1734:	97 e0       	ldi	r25, 0x07	; 7
    1736:	8a d4       	rcall	.+2324   	; 0x204c <puts>
    1738:	05 d3       	rcall	.+1546   	; 0x1d44 <ChipErase>
    173a:	88 ed       	ldi	r24, 0xD8	; 216
    173c:	97 e0       	ldi	r25, 0x07	; 7
    173e:	86 d4       	rcall	.+2316   	; 0x204c <puts>
    1740:	87 ee       	ldi	r24, 0xE7	; 231
    1742:	97 e0       	ldi	r25, 0x07	; 7
    1744:	83 d4       	rcall	.+2310   	; 0x204c <puts>
    1746:	1f d3       	rcall	.+1598   	; 0x1d86 <ProgramFlash>
    1748:	86 ef       	ldi	r24, 0xF6	; 246
    174a:	97 e0       	ldi	r25, 0x07	; 7
    174c:	7f d4       	rcall	.+2302   	; 0x204c <puts>
    174e:	5a d2       	rcall	.+1204   	; 0x1c04 <VerifyFlash>
    1750:	ec 01       	movw	r28, r24
    1752:	00 97       	sbiw	r24, 0x00	; 0
    1754:	39 f0       	breq	.+14     	; 0x1764 <Program+0x5e>
    1756:	83 e0       	ldi	r24, 0x03	; 3
    1758:	98 e0       	ldi	r25, 0x08	; 8
    175a:	78 d4       	rcall	.+2288   	; 0x204c <puts>
    175c:	a7 d3       	rcall	.+1870   	; 0x1eac <ExitParallelProgrammingMode>
    175e:	c1 e0       	ldi	r28, 0x01	; 1
    1760:	d0 e0       	ldi	r29, 0x00	; 0
    1762:	07 c0       	rjmp	.+14     	; 0x1772 <Program+0x6c>
    1764:	8a e1       	ldi	r24, 0x1A	; 26
    1766:	98 e0       	ldi	r25, 0x08	; 8
    1768:	02 c0       	rjmp	.+4      	; 0x176e <Program+0x68>
    176a:	8e e2       	ldi	r24, 0x2E	; 46
    176c:	98 e0       	ldi	r25, 0x08	; 8
    176e:	6e d4       	rcall	.+2268   	; 0x204c <puts>
    1770:	9d d3       	rcall	.+1850   	; 0x1eac <ExitParallelProgrammingMode>
    1772:	ce 01       	movw	r24, r28
    1774:	df 91       	pop	r29
    1776:	cf 91       	pop	r28
    1778:	ff 90       	pop	r15
    177a:	ef 90       	pop	r14
    177c:	df 90       	pop	r13
    177e:	cf 90       	pop	r12
    1780:	08 95       	ret

00001782 <compressFile>:
    1782:	af 92       	push	r10
    1784:	bf 92       	push	r11
    1786:	cf 92       	push	r12
    1788:	df 92       	push	r13
    178a:	ef 92       	push	r14
    178c:	ff 92       	push	r15
    178e:	0f 93       	push	r16
    1790:	1f 93       	push	r17
    1792:	cf 93       	push	r28
    1794:	df 93       	push	r29
    1796:	7c 01       	movw	r14, r24
    1798:	01 e0       	ldi	r16, 0x01	; 1
    179a:	10 e0       	ldi	r17, 0x00	; 0
    179c:	c0 e0       	ldi	r28, 0x00	; 0
    179e:	d0 e0       	ldi	r29, 0x00	; 0
    17a0:	58 01       	movw	r10, r16
    17a2:	81 e0       	ldi	r24, 0x01	; 1
    17a4:	a8 1a       	sub	r10, r24
    17a6:	b1 08       	sbc	r11, r1
    17a8:	ce 15       	cp	r28, r14
    17aa:	df 05       	cpc	r29, r15
    17ac:	f8 f4       	brcc	.+62     	; 0x17ec <compressFile+0x6a>
    17ae:	be 01       	movw	r22, r28
    17b0:	88 27       	eor	r24, r24
    17b2:	77 fd       	sbrc	r23, 7
    17b4:	80 95       	com	r24
    17b6:	98 2f       	mov	r25, r24
    17b8:	f8 da       	rcall	.-2576   	; 0xdaa <RAMReadByte>
    17ba:	8a 33       	cpi	r24, 0x3A	; 58
    17bc:	99 f0       	breq	.+38     	; 0x17e4 <compressFile+0x62>
    17be:	8f 70       	andi	r24, 0x0F	; 15
    17c0:	c8 2e       	mov	r12, r24
    17c2:	01 c0       	rjmp	.+2      	; 0x17c6 <compressFile+0x44>
    17c4:	cc 0c       	add	r12, r12
    17c6:	8a 95       	dec	r24
    17c8:	ea f7       	brpl	.-6      	; 0x17c4 <compressFile+0x42>
    17ca:	21 96       	adiw	r28, 0x01	; 1
    17cc:	be 01       	movw	r22, r28
    17ce:	88 27       	eor	r24, r24
    17d0:	77 fd       	sbrc	r23, 7
    17d2:	80 95       	com	r24
    17d4:	98 2f       	mov	r25, r24
    17d6:	e9 da       	rcall	.-2606   	; 0xdaa <RAMReadByte>
    17d8:	a5 01       	movw	r20, r10
    17da:	60 e0       	ldi	r22, 0x00	; 0
    17dc:	70 e0       	ldi	r23, 0x00	; 0
    17de:	8f 70       	andi	r24, 0x0F	; 15
    17e0:	8c 29       	or	r24, r12
    17e2:	cb da       	rcall	.-2666   	; 0xd7a <RAMWriteByte>
    17e4:	21 96       	adiw	r28, 0x01	; 1
    17e6:	0f 5f       	subi	r16, 0xFF	; 255
    17e8:	1f 4f       	sbci	r17, 0xFF	; 255
    17ea:	da cf       	rjmp	.-76     	; 0x17a0 <compressFile+0x1e>
    17ec:	81 e0       	ldi	r24, 0x01	; 1
    17ee:	90 e0       	ldi	r25, 0x00	; 0
    17f0:	df 91       	pop	r29
    17f2:	cf 91       	pop	r28
    17f4:	1f 91       	pop	r17
    17f6:	0f 91       	pop	r16
    17f8:	ff 90       	pop	r15
    17fa:	ef 90       	pop	r14
    17fc:	df 90       	pop	r13
    17fe:	cf 90       	pop	r12
    1800:	bf 90       	pop	r11
    1802:	af 90       	pop	r10
    1804:	08 95       	ret

00001806 <ProgInit>:
    1806:	9a d9       	rcall	.-3276   	; 0xb3c <SPI_FPGA_Init>
    1808:	c2 db       	rcall	.-2172   	; 0xf8e <voltageControlInit>
    180a:	81 e0       	ldi	r24, 0x01	; 1
    180c:	dd db       	rcall	.-2118   	; 0xfc8 <setVpp>
    180e:	84 e0       	ldi	r24, 0x04	; 4
    1810:	d0 db       	rcall	.-2144   	; 0xfb2 <setVcc>
    1812:	86 e0       	ldi	r24, 0x06	; 6
    1814:	e8 db       	rcall	.-2096   	; 0xfe6 <setVLogic>
    1816:	8f e0       	ldi	r24, 0x0F	; 15
    1818:	97 e2       	ldi	r25, 0x27	; 39
    181a:	01 97       	sbiw	r24, 0x01	; 1
    181c:	f1 f7       	brne	.-4      	; 0x181a <ProgInit+0x14>
    181e:	00 c0       	rjmp	.+0      	; 0x1820 <ProgInit+0x1a>
    1820:	00 00       	nop
    1822:	c3 db       	rcall	.-2170   	; 0xfaa <enableVccRegulator>
    1824:	dc db       	rcall	.-2120   	; 0xfde <enableVLogic>
    1826:	8f e4       	ldi	r24, 0x4F	; 79
    1828:	93 ec       	ldi	r25, 0xC3	; 195
    182a:	01 97       	sbiw	r24, 0x01	; 1
    182c:	f1 f7       	brne	.-4      	; 0x182a <ProgInit+0x24>
    182e:	00 c0       	rjmp	.+0      	; 0x1830 <ProgInit+0x2a>
    1830:	00 00       	nop
    1832:	8a b1       	in	r24, 0x0a	; 10
    1834:	8f ef       	ldi	r24, 0xFF	; 255
    1836:	8a b9       	out	0x0a, r24	; 10
    1838:	38 98       	cbi	0x07, 0	; 7
    183a:	80 93 0a 01 	sts	0x010A, r24
    183e:	83 b3       	in	r24, 0x13	; 19
    1840:	87 60       	ori	r24, 0x07	; 7
    1842:	83 bb       	out	0x13, r24	; 19
    1844:	a0 9a       	sbi	0x14, 0	; 20
    1846:	08 95       	ret

00001848 <ApplyPullDowns>:
    1848:	b5 da       	rcall	.-2710   	; 0xdb4 <SPI_Switching_Circuitry_Init>
    184a:	8f ef       	ldi	r24, 0xFF	; 255
    184c:	c1 da       	rcall	.-2686   	; 0xdd0 <SPI_Switching_Circuitry_Write>
    184e:	8f ef       	ldi	r24, 0xFF	; 255
    1850:	bf da       	rcall	.-2690   	; 0xdd0 <SPI_Switching_Circuitry_Write>
    1852:	8f ef       	ldi	r24, 0xFF	; 255
    1854:	bd da       	rcall	.-2694   	; 0xdd0 <SPI_Switching_Circuitry_Write>
    1856:	8f ef       	ldi	r24, 0xFF	; 255
    1858:	bb da       	rcall	.-2698   	; 0xdd0 <SPI_Switching_Circuitry_Write>
    185a:	8f ef       	ldi	r24, 0xFF	; 255
    185c:	b9 da       	rcall	.-2702   	; 0xdd0 <SPI_Switching_Circuitry_Write>
    185e:	80 e0       	ldi	r24, 0x00	; 0
    1860:	b7 da       	rcall	.-2706   	; 0xdd0 <SPI_Switching_Circuitry_Write>
    1862:	80 e0       	ldi	r24, 0x00	; 0
    1864:	b5 da       	rcall	.-2710   	; 0xdd0 <SPI_Switching_Circuitry_Write>
    1866:	80 e0       	ldi	r24, 0x00	; 0
    1868:	b3 da       	rcall	.-2714   	; 0xdd0 <SPI_Switching_Circuitry_Write>
    186a:	80 e0       	ldi	r24, 0x00	; 0
    186c:	b1 da       	rcall	.-2718   	; 0xdd0 <SPI_Switching_Circuitry_Write>
    186e:	80 e0       	ldi	r24, 0x00	; 0
    1870:	af da       	rcall	.-2722   	; 0xdd0 <SPI_Switching_Circuitry_Write>
    1872:	80 e0       	ldi	r24, 0x00	; 0
    1874:	ad da       	rcall	.-2726   	; 0xdd0 <SPI_Switching_Circuitry_Write>
    1876:	80 e0       	ldi	r24, 0x00	; 0
    1878:	ab da       	rcall	.-2730   	; 0xdd0 <SPI_Switching_Circuitry_Write>
    187a:	80 e0       	ldi	r24, 0x00	; 0
    187c:	a9 da       	rcall	.-2734   	; 0xdd0 <SPI_Switching_Circuitry_Write>
    187e:	80 e0       	ldi	r24, 0x00	; 0
    1880:	a7 da       	rcall	.-2738   	; 0xdd0 <SPI_Switching_Circuitry_Write>
    1882:	80 e0       	ldi	r24, 0x00	; 0
    1884:	a5 da       	rcall	.-2742   	; 0xdd0 <SPI_Switching_Circuitry_Write>
    1886:	80 e0       	ldi	r24, 0x00	; 0
    1888:	a3 da       	rcall	.-2746   	; 0xdd0 <SPI_Switching_Circuitry_Write>
    188a:	80 e0       	ldi	r24, 0x00	; 0
    188c:	a1 da       	rcall	.-2750   	; 0xdd0 <SPI_Switching_Circuitry_Write>
    188e:	80 e0       	ldi	r24, 0x00	; 0
    1890:	9f da       	rcall	.-2754   	; 0xdd0 <SPI_Switching_Circuitry_Write>
    1892:	80 e0       	ldi	r24, 0x00	; 0
    1894:	9d da       	rcall	.-2758   	; 0xdd0 <SPI_Switching_Circuitry_Write>
    1896:	80 e0       	ldi	r24, 0x00	; 0
    1898:	9b da       	rcall	.-2762   	; 0xdd0 <SPI_Switching_Circuitry_Write>
    189a:	80 e0       	ldi	r24, 0x00	; 0
    189c:	99 da       	rcall	.-2766   	; 0xdd0 <SPI_Switching_Circuitry_Write>
    189e:	80 e0       	ldi	r24, 0x00	; 0
    18a0:	97 da       	rcall	.-2770   	; 0xdd0 <SPI_Switching_Circuitry_Write>
    18a2:	80 e0       	ldi	r24, 0x00	; 0
    18a4:	95 da       	rcall	.-2774   	; 0xdd0 <SPI_Switching_Circuitry_Write>
    18a6:	80 e0       	ldi	r24, 0x00	; 0
    18a8:	93 da       	rcall	.-2778   	; 0xdd0 <SPI_Switching_Circuitry_Write>
    18aa:	80 e0       	ldi	r24, 0x00	; 0
    18ac:	91 da       	rcall	.-2782   	; 0xdd0 <SPI_Switching_Circuitry_Write>
    18ae:	e5 e0       	ldi	r30, 0x05	; 5
    18b0:	f1 e0       	ldi	r31, 0x01	; 1
    18b2:	80 81       	ld	r24, Z
    18b4:	80 61       	ori	r24, 0x10	; 16
    18b6:	80 83       	st	Z, r24
    18b8:	85 e3       	ldi	r24, 0x35	; 53
    18ba:	8a 95       	dec	r24
    18bc:	f1 f7       	brne	.-4      	; 0x18ba <ApplyPullDowns+0x72>
    18be:	00 00       	nop
    18c0:	80 81       	ld	r24, Z
    18c2:	8f 7e       	andi	r24, 0xEF	; 239
    18c4:	80 83       	st	Z, r24
    18c6:	08 95       	ret

000018c8 <LoadCommand>:
    18c8:	5d 9a       	sbi	0x0b, 5	; 11
    18ca:	5c 98       	cbi	0x0b, 4	; 11
    18cc:	5b 98       	cbi	0x0b, 3	; 11
    18ce:	80 93 0b 01 	sts	0x010B, r24
    18d2:	82 e4       	ldi	r24, 0x42	; 66
    18d4:	8a 95       	dec	r24
    18d6:	f1 f7       	brne	.-4      	; 0x18d4 <LoadCommand+0xc>
    18d8:	00 c0       	rjmp	.+0      	; 0x18da <LoadCommand+0x12>
    18da:	58 9a       	sbi	0x0b, 0	; 11
    18dc:	82 e4       	ldi	r24, 0x42	; 66
    18de:	8a 95       	dec	r24
    18e0:	f1 f7       	brne	.-4      	; 0x18de <LoadCommand+0x16>
    18e2:	00 c0       	rjmp	.+0      	; 0x18e4 <LoadCommand+0x1c>
    18e4:	58 98       	cbi	0x0b, 0	; 11
    18e6:	82 e4       	ldi	r24, 0x42	; 66
    18e8:	8a 95       	dec	r24
    18ea:	f1 f7       	brne	.-4      	; 0x18e8 <LoadCommand+0x20>
    18ec:	00 c0       	rjmp	.+0      	; 0x18ee <LoadCommand+0x26>
    18ee:	08 95       	ret

000018f0 <WriteWord>:
    18f0:	5d 98       	cbi	0x0b, 5	; 11
    18f2:	5c 9a       	sbi	0x0b, 4	; 11
    18f4:	80 93 0b 01 	sts	0x010B, r24
    18f8:	82 e4       	ldi	r24, 0x42	; 66
    18fa:	8a 95       	dec	r24
    18fc:	f1 f7       	brne	.-4      	; 0x18fa <WriteWord+0xa>
    18fe:	00 c0       	rjmp	.+0      	; 0x1900 <WriteWord+0x10>
    1900:	58 9a       	sbi	0x0b, 0	; 11
    1902:	82 e4       	ldi	r24, 0x42	; 66
    1904:	8a 95       	dec	r24
    1906:	f1 f7       	brne	.-4      	; 0x1904 <WriteWord+0x14>
    1908:	00 c0       	rjmp	.+0      	; 0x190a <WriteWord+0x1a>
    190a:	58 98       	cbi	0x0b, 0	; 11
    190c:	82 e4       	ldi	r24, 0x42	; 66
    190e:	8a 95       	dec	r24
    1910:	f1 f7       	brne	.-4      	; 0x190e <WriteWord+0x1e>
    1912:	00 c0       	rjmp	.+0      	; 0x1914 <WriteWord+0x24>
    1914:	5b 9a       	sbi	0x0b, 3	; 11
    1916:	5d 98       	cbi	0x0b, 5	; 11
    1918:	5c 9a       	sbi	0x0b, 4	; 11
    191a:	90 93 0b 01 	sts	0x010B, r25
    191e:	82 e4       	ldi	r24, 0x42	; 66
    1920:	8a 95       	dec	r24
    1922:	f1 f7       	brne	.-4      	; 0x1920 <WriteWord+0x30>
    1924:	00 c0       	rjmp	.+0      	; 0x1926 <WriteWord+0x36>
    1926:	58 9a       	sbi	0x0b, 0	; 11
    1928:	82 e4       	ldi	r24, 0x42	; 66
    192a:	8a 95       	dec	r24
    192c:	f1 f7       	brne	.-4      	; 0x192a <WriteWord+0x3a>
    192e:	00 c0       	rjmp	.+0      	; 0x1930 <WriteWord+0x40>
    1930:	58 98       	cbi	0x0b, 0	; 11
    1932:	82 e4       	ldi	r24, 0x42	; 66
    1934:	8a 95       	dec	r24
    1936:	f1 f7       	brne	.-4      	; 0x1934 <WriteWord+0x44>
    1938:	00 c0       	rjmp	.+0      	; 0x193a <WriteWord+0x4a>
    193a:	08 95       	ret

0000193c <LoadLowAddress>:
    193c:	5d 98       	cbi	0x0b, 5	; 11
    193e:	5c 98       	cbi	0x0b, 4	; 11
    1940:	5b 98       	cbi	0x0b, 3	; 11
    1942:	5f 98       	cbi	0x0b, 7	; 11
    1944:	80 93 0b 01 	sts	0x010B, r24
    1948:	82 e4       	ldi	r24, 0x42	; 66
    194a:	8a 95       	dec	r24
    194c:	f1 f7       	brne	.-4      	; 0x194a <LoadLowAddress+0xe>
    194e:	00 c0       	rjmp	.+0      	; 0x1950 <LoadLowAddress+0x14>
    1950:	58 9a       	sbi	0x0b, 0	; 11
    1952:	82 e4       	ldi	r24, 0x42	; 66
    1954:	8a 95       	dec	r24
    1956:	f1 f7       	brne	.-4      	; 0x1954 <LoadLowAddress+0x18>
    1958:	00 c0       	rjmp	.+0      	; 0x195a <LoadLowAddress+0x1e>
    195a:	58 98       	cbi	0x0b, 0	; 11
    195c:	82 e4       	ldi	r24, 0x42	; 66
    195e:	8a 95       	dec	r24
    1960:	f1 f7       	brne	.-4      	; 0x195e <LoadLowAddress+0x22>
    1962:	00 c0       	rjmp	.+0      	; 0x1964 <LoadLowAddress+0x28>
    1964:	08 95       	ret

00001966 <LoadHighAddress>:
    1966:	5d 98       	cbi	0x0b, 5	; 11
    1968:	5c 98       	cbi	0x0b, 4	; 11
    196a:	5f 98       	cbi	0x0b, 7	; 11
    196c:	5b 9a       	sbi	0x0b, 3	; 11
    196e:	90 93 0b 01 	sts	0x010B, r25
    1972:	82 e4       	ldi	r24, 0x42	; 66
    1974:	8a 95       	dec	r24
    1976:	f1 f7       	brne	.-4      	; 0x1974 <LoadHighAddress+0xe>
    1978:	00 c0       	rjmp	.+0      	; 0x197a <LoadHighAddress+0x14>
    197a:	58 9a       	sbi	0x0b, 0	; 11
    197c:	82 e4       	ldi	r24, 0x42	; 66
    197e:	8a 95       	dec	r24
    1980:	f1 f7       	brne	.-4      	; 0x197e <LoadHighAddress+0x18>
    1982:	00 c0       	rjmp	.+0      	; 0x1984 <LoadHighAddress+0x1e>
    1984:	58 98       	cbi	0x0b, 0	; 11
    1986:	82 e4       	ldi	r24, 0x42	; 66
    1988:	8a 95       	dec	r24
    198a:	f1 f7       	brne	.-4      	; 0x1988 <LoadHighAddress+0x22>
    198c:	00 c0       	rjmp	.+0      	; 0x198e <LoadHighAddress+0x28>
    198e:	08 95       	ret

00001990 <LatchData>:
    1990:	5b 9a       	sbi	0x0b, 3	; 11
    1992:	82 e4       	ldi	r24, 0x42	; 66
    1994:	8a 95       	dec	r24
    1996:	f1 f7       	brne	.-4      	; 0x1994 <LatchData+0x4>
    1998:	00 c0       	rjmp	.+0      	; 0x199a <LatchData+0xa>
    199a:	5e 9a       	sbi	0x0b, 6	; 11
    199c:	82 e4       	ldi	r24, 0x42	; 66
    199e:	8a 95       	dec	r24
    19a0:	f1 f7       	brne	.-4      	; 0x199e <LatchData+0xe>
    19a2:	00 c0       	rjmp	.+0      	; 0x19a4 <LatchData+0x14>
    19a4:	5e 98       	cbi	0x0b, 6	; 11
    19a6:	82 e4       	ldi	r24, 0x42	; 66
    19a8:	8a 95       	dec	r24
    19aa:	f1 f7       	brne	.-4      	; 0x19a8 <LatchData+0x18>
    19ac:	00 c0       	rjmp	.+0      	; 0x19ae <LatchData+0x1e>
    19ae:	08 95       	ret

000019b0 <ProgramPage>:
    19b0:	5f 98       	cbi	0x0b, 7	; 11
    19b2:	5b 98       	cbi	0x0b, 3	; 11
    19b4:	5a 98       	cbi	0x0b, 2	; 11
    19b6:	82 e4       	ldi	r24, 0x42	; 66
    19b8:	8a 95       	dec	r24
    19ba:	f1 f7       	brne	.-4      	; 0x19b8 <ProgramPage+0x8>
    19bc:	00 c0       	rjmp	.+0      	; 0x19be <ProgramPage+0xe>
    19be:	5a 9a       	sbi	0x0b, 2	; 11
    19c0:	82 e4       	ldi	r24, 0x42	; 66
    19c2:	8a 95       	dec	r24
    19c4:	f1 f7       	brne	.-4      	; 0x19c2 <ProgramPage+0x12>
    19c6:	00 c0       	rjmp	.+0      	; 0x19c8 <ProgramPage+0x18>
    19c8:	30 9b       	sbis	0x06, 0	; 6
    19ca:	fe cf       	rjmp	.-4      	; 0x19c8 <ProgramPage+0x18>
    19cc:	08 95       	ret

000019ce <EndPageProgramming>:
    19ce:	5d 9a       	sbi	0x0b, 5	; 11
    19d0:	5c 98       	cbi	0x0b, 4	; 11
    19d2:	10 92 0b 01 	sts	0x010B, r1
    19d6:	82 e4       	ldi	r24, 0x42	; 66
    19d8:	8a 95       	dec	r24
    19da:	f1 f7       	brne	.-4      	; 0x19d8 <EndPageProgramming+0xa>
    19dc:	00 c0       	rjmp	.+0      	; 0x19de <EndPageProgramming+0x10>
    19de:	58 9a       	sbi	0x0b, 0	; 11
    19e0:	82 e4       	ldi	r24, 0x42	; 66
    19e2:	8a 95       	dec	r24
    19e4:	f1 f7       	brne	.-4      	; 0x19e2 <EndPageProgramming+0x14>
    19e6:	00 c0       	rjmp	.+0      	; 0x19e8 <EndPageProgramming+0x1a>
    19e8:	58 98       	cbi	0x0b, 0	; 11
    19ea:	82 e4       	ldi	r24, 0x42	; 66
    19ec:	8a 95       	dec	r24
    19ee:	f1 f7       	brne	.-4      	; 0x19ec <EndPageProgramming+0x1e>
    19f0:	00 c0       	rjmp	.+0      	; 0x19f2 <EndPageProgramming+0x24>
    19f2:	08 95       	ret

000019f4 <EnableProgMode>:
    19f4:	cf 92       	push	r12
    19f6:	df 92       	push	r13
    19f8:	ef 92       	push	r14
    19fa:	ff 92       	push	r15
    19fc:	6b 01       	movw	r12, r22
    19fe:	7c 01       	movw	r14, r24
    1a00:	58 98       	cbi	0x0b, 0	; 11
    1a02:	8b b1       	in	r24, 0x0b	; 11
    1a04:	81 7c       	andi	r24, 0xC1	; 193
    1a06:	8b b9       	out	0x0b, r24	; 11
    1a08:	10 92 0b 01 	sts	0x010B, r1
    1a0c:	1b b8       	out	0x0b, r1	; 11
    1a0e:	80 91 05 01 	lds	r24, 0x0105
    1a12:	8b 7f       	andi	r24, 0xFB	; 251
    1a14:	80 93 05 01 	sts	0x0105, r24
    1a18:	c7 01       	movw	r24, r14
    1a1a:	b6 01       	movw	r22, r12
    1a1c:	9d d8       	rcall	.-3782   	; 0xb58 <FPGA_Write>
    1a1e:	8a e0       	ldi	r24, 0x0A	; 10
    1a20:	c8 16       	cp	r12, r24
    1a22:	81 e9       	ldi	r24, 0x91	; 145
    1a24:	d8 06       	cpc	r13, r24
    1a26:	8e e1       	ldi	r24, 0x1E	; 30
    1a28:	e8 06       	cpc	r14, r24
    1a2a:	f1 04       	cpc	r15, r1
    1a2c:	51 f0       	breq	.+20     	; 0x1a42 <EnableProgMode+0x4e>
    1a2e:	91 e1       	ldi	r25, 0x11	; 17
    1a30:	c9 16       	cp	r12, r25
    1a32:	95 e9       	ldi	r25, 0x95	; 149
    1a34:	d9 06       	cpc	r13, r25
    1a36:	9e e1       	ldi	r25, 0x1E	; 30
    1a38:	e9 06       	cpc	r14, r25
    1a3a:	f1 04       	cpc	r15, r1
    1a3c:	19 f4       	brne	.+6      	; 0x1a44 <EnableProgMode+0x50>
    1a3e:	5c da       	rcall	.-2888   	; 0xef8 <setAtMega324PA>
    1a40:	01 c0       	rjmp	.+2      	; 0x1a44 <EnableProgMode+0x50>
    1a42:	11 da       	rcall	.-3038   	; 0xe66 <setAtTiny2313>
    1a44:	87 ec       	ldi	r24, 0xC7	; 199
    1a46:	90 e0       	ldi	r25, 0x00	; 0
    1a48:	01 97       	sbiw	r24, 0x01	; 1
    1a4a:	f1 f7       	brne	.-4      	; 0x1a48 <EnableProgMode+0x54>
    1a4c:	00 c0       	rjmp	.+0      	; 0x1a4e <EnableProgMode+0x5a>
    1a4e:	00 00       	nop
    1a50:	a8 da       	rcall	.-2736   	; 0xfa2 <enableVppRegulator>
    1a52:	95 e8       	ldi	r25, 0x85	; 133
    1a54:	9a 95       	dec	r25
    1a56:	f1 f7       	brne	.-4      	; 0x1a54 <EnableProgMode+0x60>
    1a58:	00 00       	nop
    1a5a:	8b b1       	in	r24, 0x0b	; 11
    1a5c:	86 60       	ori	r24, 0x06	; 6
    1a5e:	8b b9       	out	0x0b, r24	; 11
    1a60:	87 ee       	ldi	r24, 0xE7	; 231
    1a62:	93 e0       	ldi	r25, 0x03	; 3
    1a64:	01 97       	sbiw	r24, 0x01	; 1
    1a66:	f1 f7       	brne	.-4      	; 0x1a64 <EnableProgMode+0x70>
    1a68:	00 c0       	rjmp	.+0      	; 0x1a6a <EnableProgMode+0x76>
    1a6a:	00 00       	nop
    1a6c:	ff 90       	pop	r15
    1a6e:	ef 90       	pop	r14
    1a70:	df 90       	pop	r13
    1a72:	cf 90       	pop	r12
    1a74:	08 95       	ret

00001a76 <ReadSignatureBytes>:
    1a76:	88 e0       	ldi	r24, 0x08	; 8
    1a78:	27 df       	rcall	.-434    	; 0x18c8 <LoadCommand>
    1a7a:	5d 98       	cbi	0x0b, 5	; 11
    1a7c:	5c 98       	cbi	0x0b, 4	; 11
    1a7e:	5b 98       	cbi	0x0b, 3	; 11
    1a80:	10 92 0b 01 	sts	0x010B, r1
    1a84:	87 ec       	ldi	r24, 0xC7	; 199
    1a86:	90 e0       	ldi	r25, 0x00	; 0
    1a88:	01 97       	sbiw	r24, 0x01	; 1
    1a8a:	f1 f7       	brne	.-4      	; 0x1a88 <ReadSignatureBytes+0x12>
    1a8c:	00 c0       	rjmp	.+0      	; 0x1a8e <ReadSignatureBytes+0x18>
    1a8e:	00 00       	nop
    1a90:	58 9a       	sbi	0x0b, 0	; 11
    1a92:	92 e4       	ldi	r25, 0x42	; 66
    1a94:	9a 95       	dec	r25
    1a96:	f1 f7       	brne	.-4      	; 0x1a94 <ReadSignatureBytes+0x1e>
    1a98:	00 c0       	rjmp	.+0      	; 0x1a9a <ReadSignatureBytes+0x24>
    1a9a:	58 98       	cbi	0x0b, 0	; 11
    1a9c:	87 ec       	ldi	r24, 0xC7	; 199
    1a9e:	90 e0       	ldi	r25, 0x00	; 0
    1aa0:	01 97       	sbiw	r24, 0x01	; 1
    1aa2:	f1 f7       	brne	.-4      	; 0x1aa0 <ReadSignatureBytes+0x2a>
    1aa4:	00 c0       	rjmp	.+0      	; 0x1aa6 <ReadSignatureBytes+0x30>
    1aa6:	00 00       	nop
    1aa8:	10 92 0a 01 	sts	0x010A, r1
    1aac:	e5 e0       	ldi	r30, 0x05	; 5
    1aae:	f1 e0       	ldi	r31, 0x01	; 1
    1ab0:	80 81       	ld	r24, Z
    1ab2:	84 60       	ori	r24, 0x04	; 4
    1ab4:	80 83       	st	Z, r24
    1ab6:	59 98       	cbi	0x0b, 1	; 11
    1ab8:	5b 98       	cbi	0x0b, 3	; 11
    1aba:	87 ee       	ldi	r24, 0xE7	; 231
    1abc:	93 e0       	ldi	r25, 0x03	; 3
    1abe:	01 97       	sbiw	r24, 0x01	; 1
    1ac0:	f1 f7       	brne	.-4      	; 0x1abe <ReadSignatureBytes+0x48>
    1ac2:	00 c0       	rjmp	.+0      	; 0x1ac4 <ReadSignatureBytes+0x4e>
    1ac4:	00 00       	nop
    1ac6:	80 91 09 01 	lds	r24, 0x0109
    1aca:	80 93 68 08 	sts	0x0868, r24
    1ace:	1f 92       	push	r1
    1ad0:	8f 93       	push	r24
    1ad2:	84 e2       	ldi	r24, 0x24	; 36
    1ad4:	96 e0       	ldi	r25, 0x06	; 6
    1ad6:	9f 93       	push	r25
    1ad8:	8f 93       	push	r24
    1ada:	a2 d2       	rcall	.+1348   	; 0x2020 <printf>
    1adc:	59 9a       	sbi	0x0b, 1	; 11
    1ade:	e5 e0       	ldi	r30, 0x05	; 5
    1ae0:	f1 e0       	ldi	r31, 0x01	; 1
    1ae2:	80 81       	ld	r24, Z
    1ae4:	8b 7f       	andi	r24, 0xFB	; 251
    1ae6:	80 83       	st	Z, r24
    1ae8:	8f ef       	ldi	r24, 0xFF	; 255
    1aea:	80 93 0a 01 	sts	0x010A, r24
    1aee:	87 ec       	ldi	r24, 0xC7	; 199
    1af0:	90 e0       	ldi	r25, 0x00	; 0
    1af2:	01 97       	sbiw	r24, 0x01	; 1
    1af4:	f1 f7       	brne	.-4      	; 0x1af2 <ReadSignatureBytes+0x7c>
    1af6:	00 c0       	rjmp	.+0      	; 0x1af8 <ReadSignatureBytes+0x82>
    1af8:	00 00       	nop
    1afa:	5d 98       	cbi	0x0b, 5	; 11
    1afc:	5c 98       	cbi	0x0b, 4	; 11
    1afe:	5b 98       	cbi	0x0b, 3	; 11
    1b00:	81 e0       	ldi	r24, 0x01	; 1
    1b02:	80 93 0b 01 	sts	0x010B, r24
    1b06:	87 ec       	ldi	r24, 0xC7	; 199
    1b08:	90 e0       	ldi	r25, 0x00	; 0
    1b0a:	01 97       	sbiw	r24, 0x01	; 1
    1b0c:	f1 f7       	brne	.-4      	; 0x1b0a <ReadSignatureBytes+0x94>
    1b0e:	00 c0       	rjmp	.+0      	; 0x1b10 <ReadSignatureBytes+0x9a>
    1b10:	00 00       	nop
    1b12:	58 9a       	sbi	0x0b, 0	; 11
    1b14:	92 e4       	ldi	r25, 0x42	; 66
    1b16:	9a 95       	dec	r25
    1b18:	f1 f7       	brne	.-4      	; 0x1b16 <ReadSignatureBytes+0xa0>
    1b1a:	00 c0       	rjmp	.+0      	; 0x1b1c <ReadSignatureBytes+0xa6>
    1b1c:	58 98       	cbi	0x0b, 0	; 11
    1b1e:	87 ec       	ldi	r24, 0xC7	; 199
    1b20:	90 e0       	ldi	r25, 0x00	; 0
    1b22:	01 97       	sbiw	r24, 0x01	; 1
    1b24:	f1 f7       	brne	.-4      	; 0x1b22 <ReadSignatureBytes+0xac>
    1b26:	00 c0       	rjmp	.+0      	; 0x1b28 <ReadSignatureBytes+0xb2>
    1b28:	00 00       	nop
    1b2a:	10 92 0a 01 	sts	0x010A, r1
    1b2e:	80 81       	ld	r24, Z
    1b30:	84 60       	ori	r24, 0x04	; 4
    1b32:	80 83       	st	Z, r24
    1b34:	59 98       	cbi	0x0b, 1	; 11
    1b36:	5b 98       	cbi	0x0b, 3	; 11
    1b38:	87 ee       	ldi	r24, 0xE7	; 231
    1b3a:	93 e0       	ldi	r25, 0x03	; 3
    1b3c:	01 97       	sbiw	r24, 0x01	; 1
    1b3e:	f1 f7       	brne	.-4      	; 0x1b3c <ReadSignatureBytes+0xc6>
    1b40:	00 c0       	rjmp	.+0      	; 0x1b42 <ReadSignatureBytes+0xcc>
    1b42:	00 00       	nop
    1b44:	80 91 09 01 	lds	r24, 0x0109
    1b48:	80 93 69 08 	sts	0x0869, r24
    1b4c:	1f 92       	push	r1
    1b4e:	8f 93       	push	r24
    1b50:	84 e2       	ldi	r24, 0x24	; 36
    1b52:	96 e0       	ldi	r25, 0x06	; 6
    1b54:	9f 93       	push	r25
    1b56:	8f 93       	push	r24
    1b58:	63 d2       	rcall	.+1222   	; 0x2020 <printf>
    1b5a:	59 9a       	sbi	0x0b, 1	; 11
    1b5c:	e5 e0       	ldi	r30, 0x05	; 5
    1b5e:	f1 e0       	ldi	r31, 0x01	; 1
    1b60:	80 81       	ld	r24, Z
    1b62:	8b 7f       	andi	r24, 0xFB	; 251
    1b64:	80 83       	st	Z, r24
    1b66:	8f ef       	ldi	r24, 0xFF	; 255
    1b68:	80 93 0a 01 	sts	0x010A, r24
    1b6c:	87 ec       	ldi	r24, 0xC7	; 199
    1b6e:	90 e0       	ldi	r25, 0x00	; 0
    1b70:	01 97       	sbiw	r24, 0x01	; 1
    1b72:	f1 f7       	brne	.-4      	; 0x1b70 <ReadSignatureBytes+0xfa>
    1b74:	00 c0       	rjmp	.+0      	; 0x1b76 <ReadSignatureBytes+0x100>
    1b76:	00 00       	nop
    1b78:	5d 98       	cbi	0x0b, 5	; 11
    1b7a:	5c 98       	cbi	0x0b, 4	; 11
    1b7c:	5b 98       	cbi	0x0b, 3	; 11
    1b7e:	82 e0       	ldi	r24, 0x02	; 2
    1b80:	80 93 0b 01 	sts	0x010B, r24
    1b84:	87 ec       	ldi	r24, 0xC7	; 199
    1b86:	90 e0       	ldi	r25, 0x00	; 0
    1b88:	01 97       	sbiw	r24, 0x01	; 1
    1b8a:	f1 f7       	brne	.-4      	; 0x1b88 <ReadSignatureBytes+0x112>
    1b8c:	00 c0       	rjmp	.+0      	; 0x1b8e <ReadSignatureBytes+0x118>
    1b8e:	00 00       	nop
    1b90:	58 9a       	sbi	0x0b, 0	; 11
    1b92:	92 e4       	ldi	r25, 0x42	; 66
    1b94:	9a 95       	dec	r25
    1b96:	f1 f7       	brne	.-4      	; 0x1b94 <ReadSignatureBytes+0x11e>
    1b98:	00 c0       	rjmp	.+0      	; 0x1b9a <ReadSignatureBytes+0x124>
    1b9a:	58 98       	cbi	0x0b, 0	; 11
    1b9c:	87 ec       	ldi	r24, 0xC7	; 199
    1b9e:	90 e0       	ldi	r25, 0x00	; 0
    1ba0:	01 97       	sbiw	r24, 0x01	; 1
    1ba2:	f1 f7       	brne	.-4      	; 0x1ba0 <ReadSignatureBytes+0x12a>
    1ba4:	00 c0       	rjmp	.+0      	; 0x1ba6 <ReadSignatureBytes+0x130>
    1ba6:	00 00       	nop
    1ba8:	10 92 0a 01 	sts	0x010A, r1
    1bac:	80 81       	ld	r24, Z
    1bae:	84 60       	ori	r24, 0x04	; 4
    1bb0:	80 83       	st	Z, r24
    1bb2:	59 98       	cbi	0x0b, 1	; 11
    1bb4:	5b 98       	cbi	0x0b, 3	; 11
    1bb6:	87 ee       	ldi	r24, 0xE7	; 231
    1bb8:	93 e0       	ldi	r25, 0x03	; 3
    1bba:	01 97       	sbiw	r24, 0x01	; 1
    1bbc:	f1 f7       	brne	.-4      	; 0x1bba <ReadSignatureBytes+0x144>
    1bbe:	00 c0       	rjmp	.+0      	; 0x1bc0 <ReadSignatureBytes+0x14a>
    1bc0:	00 00       	nop
    1bc2:	80 91 09 01 	lds	r24, 0x0109
    1bc6:	80 93 6a 08 	sts	0x086A, r24
    1bca:	1f 92       	push	r1
    1bcc:	8f 93       	push	r24
    1bce:	84 e2       	ldi	r24, 0x24	; 36
    1bd0:	96 e0       	ldi	r25, 0x06	; 6
    1bd2:	9f 93       	push	r25
    1bd4:	8f 93       	push	r24
    1bd6:	24 d2       	rcall	.+1096   	; 0x2020 <printf>
    1bd8:	59 9a       	sbi	0x0b, 1	; 11
    1bda:	e5 e0       	ldi	r30, 0x05	; 5
    1bdc:	f1 e0       	ldi	r31, 0x01	; 1
    1bde:	80 81       	ld	r24, Z
    1be0:	8b 7f       	andi	r24, 0xFB	; 251
    1be2:	80 83       	st	Z, r24
    1be4:	8f ef       	ldi	r24, 0xFF	; 255
    1be6:	80 93 0a 01 	sts	0x010A, r24
    1bea:	10 92 0b 01 	sts	0x010B, r1
    1bee:	8d b7       	in	r24, 0x3d	; 61
    1bf0:	9e b7       	in	r25, 0x3e	; 62
    1bf2:	0c 96       	adiw	r24, 0x0c	; 12
    1bf4:	0f b6       	in	r0, 0x3f	; 63
    1bf6:	f8 94       	cli
    1bf8:	9e bf       	out	0x3e, r25	; 62
    1bfa:	0f be       	out	0x3f, r0	; 63
    1bfc:	8d bf       	out	0x3d, r24	; 61
    1bfe:	88 e6       	ldi	r24, 0x68	; 104
    1c00:	98 e0       	ldi	r25, 0x08	; 8
    1c02:	08 95       	ret

00001c04 <VerifyFlash>:
    1c04:	3f 92       	push	r3
    1c06:	4f 92       	push	r4
    1c08:	5f 92       	push	r5
    1c0a:	6f 92       	push	r6
    1c0c:	7f 92       	push	r7
    1c0e:	8f 92       	push	r8
    1c10:	9f 92       	push	r9
    1c12:	af 92       	push	r10
    1c14:	bf 92       	push	r11
    1c16:	cf 92       	push	r12
    1c18:	df 92       	push	r13
    1c1a:	ef 92       	push	r14
    1c1c:	ff 92       	push	r15
    1c1e:	0f 93       	push	r16
    1c20:	1f 93       	push	r17
    1c22:	cf 93       	push	r28
    1c24:	df 93       	push	r29
    1c26:	9b dc       	rcall	.-1738   	; 0x155e <hexInit>
    1c28:	82 e0       	ldi	r24, 0x02	; 2
    1c2a:	4e de       	rcall	.-868    	; 0x18c8 <LoadCommand>
    1c2c:	92 e4       	ldi	r25, 0x42	; 66
    1c2e:	69 2e       	mov	r6, r25
    1c30:	98 e0       	ldi	r25, 0x08	; 8
    1c32:	79 2e       	mov	r7, r25
    1c34:	24 e2       	ldi	r18, 0x24	; 36
    1c36:	e2 2e       	mov	r14, r18
    1c38:	26 e0       	ldi	r18, 0x06	; 6
    1c3a:	f2 2e       	mov	r15, r18
    1c3c:	33 24       	eor	r3, r3
    1c3e:	3a 94       	dec	r3
    1c40:	9a dc       	rcall	.-1740   	; 0x1576 <getHexRow>
    1c42:	ec 01       	movw	r28, r24
    1c44:	8c 81       	ldd	r24, Y+4	; 0x04
    1c46:	81 30       	cpi	r24, 0x01	; 1
    1c48:	09 f4       	brne	.+2      	; 0x1c4c <VerifyFlash+0x48>
    1c4a:	68 c0       	rjmp	.+208    	; 0x1d1c <VerifyFlash+0x118>
    1c4c:	89 80       	ldd	r8, Y+1	; 0x01
    1c4e:	91 2c       	mov	r9, r1
    1c50:	aa 80       	ldd	r10, Y+2	; 0x02
    1c52:	b1 2c       	mov	r11, r1
    1c54:	ba 2c       	mov	r11, r10
    1c56:	aa 24       	eor	r10, r10
    1c58:	8b 81       	ldd	r24, Y+3	; 0x03
    1c5a:	86 95       	lsr	r24
    1c5c:	a8 2a       	or	r10, r24
    1c5e:	85 01       	movw	r16, r10
    1c60:	c1 2c       	mov	r12, r1
    1c62:	d1 2c       	mov	r13, r1
    1c64:	c8 14       	cp	r12, r8
    1c66:	d9 04       	cpc	r13, r9
    1c68:	58 f7       	brcc	.-42     	; 0x1c40 <VerifyFlash+0x3c>
    1c6a:	c5 01       	movw	r24, r10
    1c6c:	7c de       	rcall	.-776    	; 0x1966 <LoadHighAddress>
    1c6e:	c8 01       	movw	r24, r16
    1c70:	65 de       	rcall	.-822    	; 0x193c <LoadLowAddress>
    1c72:	1f 93       	push	r17
    1c74:	0f 93       	push	r16
    1c76:	7f 92       	push	r7
    1c78:	6f 92       	push	r6
    1c7a:	d2 d1       	rcall	.+932    	; 0x2020 <printf>
    1c7c:	10 92 0a 01 	sts	0x010A, r1
    1c80:	80 91 05 01 	lds	r24, 0x0105
    1c84:	84 60       	ori	r24, 0x04	; 4
    1c86:	80 93 05 01 	sts	0x0105, r24
    1c8a:	59 98       	cbi	0x0b, 1	; 11
    1c8c:	5b 98       	cbi	0x0b, 3	; 11
    1c8e:	87 ee       	ldi	r24, 0xE7	; 231
    1c90:	93 e0       	ldi	r25, 0x03	; 3
    1c92:	01 97       	sbiw	r24, 0x01	; 1
    1c94:	f1 f7       	brne	.-4      	; 0x1c92 <VerifyFlash+0x8e>
    1c96:	00 c0       	rjmp	.+0      	; 0x1c98 <VerifyFlash+0x94>
    1c98:	00 00       	nop
    1c9a:	80 91 09 01 	lds	r24, 0x0109
    1c9e:	2e 01       	movw	r4, r28
    1ca0:	4c 0c       	add	r4, r12
    1ca2:	5d 1c       	adc	r5, r13
    1ca4:	0f 90       	pop	r0
    1ca6:	0f 90       	pop	r0
    1ca8:	0f 90       	pop	r0
    1caa:	0f 90       	pop	r0
    1cac:	f2 01       	movw	r30, r4
    1cae:	95 81       	ldd	r25, Z+5	; 0x05
    1cb0:	89 17       	cp	r24, r25
    1cb2:	19 f0       	breq	.+6      	; 0x1cba <VerifyFlash+0xb6>
    1cb4:	80 e0       	ldi	r24, 0x00	; 0
    1cb6:	90 e0       	ldi	r25, 0x00	; 0
    1cb8:	33 c0       	rjmp	.+102    	; 0x1d20 <VerifyFlash+0x11c>
    1cba:	1f 92       	push	r1
    1cbc:	8f 93       	push	r24
    1cbe:	ff 92       	push	r15
    1cc0:	ef 92       	push	r14
    1cc2:	ae d1       	rcall	.+860    	; 0x2020 <printf>
    1cc4:	5b 9a       	sbi	0x0b, 3	; 11
    1cc6:	87 ee       	ldi	r24, 0xE7	; 231
    1cc8:	93 e0       	ldi	r25, 0x03	; 3
    1cca:	01 97       	sbiw	r24, 0x01	; 1
    1ccc:	f1 f7       	brne	.-4      	; 0x1cca <VerifyFlash+0xc6>
    1cce:	00 c0       	rjmp	.+0      	; 0x1cd0 <VerifyFlash+0xcc>
    1cd0:	00 00       	nop
    1cd2:	80 91 09 01 	lds	r24, 0x0109
    1cd6:	0f 5f       	subi	r16, 0xFF	; 255
    1cd8:	1f 4f       	sbci	r17, 0xFF	; 255
    1cda:	0f 90       	pop	r0
    1cdc:	0f 90       	pop	r0
    1cde:	0f 90       	pop	r0
    1ce0:	0f 90       	pop	r0
    1ce2:	f2 01       	movw	r30, r4
    1ce4:	96 81       	ldd	r25, Z+6	; 0x06
    1ce6:	89 13       	cpse	r24, r25
    1ce8:	e5 cf       	rjmp	.-54     	; 0x1cb4 <VerifyFlash+0xb0>
    1cea:	1f 92       	push	r1
    1cec:	8f 93       	push	r24
    1cee:	ff 92       	push	r15
    1cf0:	ef 92       	push	r14
    1cf2:	96 d1       	rcall	.+812    	; 0x2020 <printf>
    1cf4:	59 9a       	sbi	0x0b, 1	; 11
    1cf6:	80 91 05 01 	lds	r24, 0x0105
    1cfa:	8b 7f       	andi	r24, 0xFB	; 251
    1cfc:	80 93 05 01 	sts	0x0105, r24
    1d00:	30 92 0a 01 	sts	0x010A, r3
    1d04:	f2 e4       	ldi	r31, 0x42	; 66
    1d06:	fa 95       	dec	r31
    1d08:	f1 f7       	brne	.-4      	; 0x1d06 <VerifyFlash+0x102>
    1d0a:	00 c0       	rjmp	.+0      	; 0x1d0c <VerifyFlash+0x108>
    1d0c:	82 e0       	ldi	r24, 0x02	; 2
    1d0e:	c8 0e       	add	r12, r24
    1d10:	d1 1c       	adc	r13, r1
    1d12:	0f 90       	pop	r0
    1d14:	0f 90       	pop	r0
    1d16:	0f 90       	pop	r0
    1d18:	0f 90       	pop	r0
    1d1a:	a4 cf       	rjmp	.-184    	; 0x1c64 <VerifyFlash+0x60>
    1d1c:	81 e0       	ldi	r24, 0x01	; 1
    1d1e:	90 e0       	ldi	r25, 0x00	; 0
    1d20:	df 91       	pop	r29
    1d22:	cf 91       	pop	r28
    1d24:	1f 91       	pop	r17
    1d26:	0f 91       	pop	r16
    1d28:	ff 90       	pop	r15
    1d2a:	ef 90       	pop	r14
    1d2c:	df 90       	pop	r13
    1d2e:	cf 90       	pop	r12
    1d30:	bf 90       	pop	r11
    1d32:	af 90       	pop	r10
    1d34:	9f 90       	pop	r9
    1d36:	8f 90       	pop	r8
    1d38:	7f 90       	pop	r7
    1d3a:	6f 90       	pop	r6
    1d3c:	5f 90       	pop	r5
    1d3e:	4f 90       	pop	r4
    1d40:	3f 90       	pop	r3
    1d42:	08 95       	ret

00001d44 <ChipErase>:
    1d44:	5d 9a       	sbi	0x0b, 5	; 11
    1d46:	5c 98       	cbi	0x0b, 4	; 11
    1d48:	5b 98       	cbi	0x0b, 3	; 11
    1d4a:	80 e8       	ldi	r24, 0x80	; 128
    1d4c:	80 93 0b 01 	sts	0x010B, r24
    1d50:	82 e4       	ldi	r24, 0x42	; 66
    1d52:	8a 95       	dec	r24
    1d54:	f1 f7       	brne	.-4      	; 0x1d52 <ChipErase+0xe>
    1d56:	00 c0       	rjmp	.+0      	; 0x1d58 <ChipErase+0x14>
    1d58:	58 9a       	sbi	0x0b, 0	; 11
    1d5a:	82 e4       	ldi	r24, 0x42	; 66
    1d5c:	8a 95       	dec	r24
    1d5e:	f1 f7       	brne	.-4      	; 0x1d5c <ChipErase+0x18>
    1d60:	00 c0       	rjmp	.+0      	; 0x1d62 <ChipErase+0x1e>
    1d62:	58 98       	cbi	0x0b, 0	; 11
    1d64:	82 e4       	ldi	r24, 0x42	; 66
    1d66:	8a 95       	dec	r24
    1d68:	f1 f7       	brne	.-4      	; 0x1d66 <ChipErase+0x22>
    1d6a:	00 c0       	rjmp	.+0      	; 0x1d6c <ChipErase+0x28>
    1d6c:	5a 98       	cbi	0x0b, 2	; 11
    1d6e:	82 e4       	ldi	r24, 0x42	; 66
    1d70:	8a 95       	dec	r24
    1d72:	f1 f7       	brne	.-4      	; 0x1d70 <ChipErase+0x2c>
    1d74:	00 c0       	rjmp	.+0      	; 0x1d76 <ChipErase+0x32>
    1d76:	5a 9a       	sbi	0x0b, 2	; 11
    1d78:	82 e4       	ldi	r24, 0x42	; 66
    1d7a:	8a 95       	dec	r24
    1d7c:	f1 f7       	brne	.-4      	; 0x1d7a <ChipErase+0x36>
    1d7e:	00 c0       	rjmp	.+0      	; 0x1d80 <ChipErase+0x3c>
    1d80:	30 9b       	sbis	0x06, 0	; 6
    1d82:	fe cf       	rjmp	.-4      	; 0x1d80 <ChipErase+0x3c>
    1d84:	08 95       	ret

00001d86 <ProgramFlash>:
    1d86:	2f 92       	push	r2
    1d88:	3f 92       	push	r3
    1d8a:	4f 92       	push	r4
    1d8c:	5f 92       	push	r5
    1d8e:	6f 92       	push	r6
    1d90:	7f 92       	push	r7
    1d92:	8f 92       	push	r8
    1d94:	9f 92       	push	r9
    1d96:	af 92       	push	r10
    1d98:	bf 92       	push	r11
    1d9a:	cf 92       	push	r12
    1d9c:	df 92       	push	r13
    1d9e:	ef 92       	push	r14
    1da0:	ff 92       	push	r15
    1da2:	0f 93       	push	r16
    1da4:	1f 93       	push	r17
    1da6:	cf 93       	push	r28
    1da8:	df 93       	push	r29
    1daa:	80 e1       	ldi	r24, 0x10	; 16
    1dac:	8d dd       	rcall	.-1254   	; 0x18c8 <LoadCommand>
    1dae:	41 2c       	mov	r4, r1
    1db0:	51 2c       	mov	r5, r1
    1db2:	32 01       	movw	r6, r4
    1db4:	e0 db       	rcall	.-2112   	; 0x1576 <getHexRow>
    1db6:	5c 01       	movw	r10, r24
    1db8:	dc 01       	movw	r26, r24
    1dba:	14 96       	adiw	r26, 0x04	; 4
    1dbc:	8c 91       	ld	r24, X
    1dbe:	14 97       	sbiw	r26, 0x04	; 4
    1dc0:	81 30       	cpi	r24, 0x01	; 1
    1dc2:	09 f4       	brne	.+2      	; 0x1dc6 <ProgramFlash+0x40>
    1dc4:	54 c0       	rjmp	.+168    	; 0x1e6e <ProgramFlash+0xe8>
    1dc6:	11 96       	adiw	r26, 0x01	; 1
    1dc8:	2c 90       	ld	r2, X
    1dca:	11 97       	sbiw	r26, 0x01	; 1
    1dcc:	31 2c       	mov	r3, r1
    1dce:	12 96       	adiw	r26, 0x02	; 2
    1dd0:	cc 91       	ld	r28, X
    1dd2:	12 97       	sbiw	r26, 0x02	; 2
    1dd4:	d0 e0       	ldi	r29, 0x00	; 0
    1dd6:	dc 2f       	mov	r29, r28
    1dd8:	cc 27       	eor	r28, r28
    1dda:	13 96       	adiw	r26, 0x03	; 3
    1ddc:	8c 91       	ld	r24, X
    1dde:	86 95       	lsr	r24
    1de0:	c8 2b       	or	r28, r24
    1de2:	8e 01       	movw	r16, r28
    1de4:	c1 2c       	mov	r12, r1
    1de6:	d1 2c       	mov	r13, r1
    1de8:	76 01       	movw	r14, r12
    1dea:	c2 14       	cp	r12, r2
    1dec:	d3 04       	cpc	r13, r3
    1dee:	80 f5       	brcc	.+96     	; 0x1e50 <ProgramFlash+0xca>
    1df0:	c8 01       	movw	r24, r16
    1df2:	a4 dd       	rcall	.-1208   	; 0x193c <LoadLowAddress>
    1df4:	1f 93       	push	r17
    1df6:	0f 93       	push	r16
    1df8:	a3 e4       	ldi	r26, 0x43	; 67
    1dfa:	b8 e0       	ldi	r27, 0x08	; 8
    1dfc:	bf 93       	push	r27
    1dfe:	af 93       	push	r26
    1e00:	0f d1       	rcall	.+542    	; 0x2020 <printf>
    1e02:	f5 01       	movw	r30, r10
    1e04:	ec 0d       	add	r30, r12
    1e06:	fd 1d       	adc	r31, r13
    1e08:	86 80       	ldd	r8, Z+6	; 0x06
    1e0a:	91 2c       	mov	r9, r1
    1e0c:	98 2c       	mov	r9, r8
    1e0e:	88 24       	eor	r8, r8
    1e10:	85 81       	ldd	r24, Z+5	; 0x05
    1e12:	88 2a       	or	r8, r24
    1e14:	c4 01       	movw	r24, r8
    1e16:	6c dd       	rcall	.-1320   	; 0x18f0 <WriteWord>
    1e18:	9f 92       	push	r9
    1e1a:	8f 92       	push	r8
    1e1c:	a4 e5       	ldi	r26, 0x54	; 84
    1e1e:	b8 e0       	ldi	r27, 0x08	; 8
    1e20:	bf 93       	push	r27
    1e22:	af 93       	push	r26
    1e24:	fd d0       	rcall	.+506    	; 0x2020 <printf>
    1e26:	4c 0c       	add	r4, r12
    1e28:	5d 1c       	adc	r5, r13
    1e2a:	6e 1c       	adc	r6, r14
    1e2c:	7f 1c       	adc	r7, r15
    1e2e:	b0 dd       	rcall	.-1184   	; 0x1990 <LatchData>
    1e30:	0f 5f       	subi	r16, 0xFF	; 255
    1e32:	1f 4f       	sbci	r17, 0xFF	; 255
    1e34:	f2 e0       	ldi	r31, 0x02	; 2
    1e36:	cf 0e       	add	r12, r31
    1e38:	d1 1c       	adc	r13, r1
    1e3a:	e1 1c       	adc	r14, r1
    1e3c:	f1 1c       	adc	r15, r1
    1e3e:	8d b7       	in	r24, 0x3d	; 61
    1e40:	9e b7       	in	r25, 0x3e	; 62
    1e42:	08 96       	adiw	r24, 0x08	; 8
    1e44:	0f b6       	in	r0, 0x3f	; 63
    1e46:	f8 94       	cli
    1e48:	9e bf       	out	0x3e, r25	; 62
    1e4a:	0f be       	out	0x3f, r0	; 63
    1e4c:	8d bf       	out	0x3d, r24	; 61
    1e4e:	cd cf       	rjmp	.-102    	; 0x1dea <ProgramFlash+0x64>
    1e50:	d3 01       	movw	r26, r6
    1e52:	c2 01       	movw	r24, r4
    1e54:	8f 71       	andi	r24, 0x1F	; 31
    1e56:	99 27       	eor	r25, r25
    1e58:	aa 27       	eor	r26, r26
    1e5a:	bb 27       	eor	r27, r27
    1e5c:	89 2b       	or	r24, r25
    1e5e:	8a 2b       	or	r24, r26
    1e60:	8b 2b       	or	r24, r27
    1e62:	09 f0       	breq	.+2      	; 0x1e66 <ProgramFlash+0xe0>
    1e64:	a7 cf       	rjmp	.-178    	; 0x1db4 <ProgramFlash+0x2e>
    1e66:	ce 01       	movw	r24, r28
    1e68:	7e dd       	rcall	.-1284   	; 0x1966 <LoadHighAddress>
    1e6a:	a2 dd       	rcall	.-1212   	; 0x19b0 <ProgramPage>
    1e6c:	a3 cf       	rjmp	.-186    	; 0x1db4 <ProgramFlash+0x2e>
    1e6e:	9f e1       	ldi	r25, 0x1F	; 31
    1e70:	49 22       	and	r4, r25
    1e72:	55 24       	eor	r5, r5
    1e74:	66 24       	eor	r6, r6
    1e76:	77 24       	eor	r7, r7
    1e78:	45 28       	or	r4, r5
    1e7a:	46 28       	or	r4, r6
    1e7c:	47 28       	or	r4, r7
    1e7e:	19 f0       	breq	.+6      	; 0x1e86 <ProgramFlash+0x100>
    1e80:	ce 01       	movw	r24, r28
    1e82:	71 dd       	rcall	.-1310   	; 0x1966 <LoadHighAddress>
    1e84:	95 dd       	rcall	.-1238   	; 0x19b0 <ProgramPage>
    1e86:	df 91       	pop	r29
    1e88:	cf 91       	pop	r28
    1e8a:	1f 91       	pop	r17
    1e8c:	0f 91       	pop	r16
    1e8e:	ff 90       	pop	r15
    1e90:	ef 90       	pop	r14
    1e92:	df 90       	pop	r13
    1e94:	cf 90       	pop	r12
    1e96:	bf 90       	pop	r11
    1e98:	af 90       	pop	r10
    1e9a:	9f 90       	pop	r9
    1e9c:	8f 90       	pop	r8
    1e9e:	7f 90       	pop	r7
    1ea0:	6f 90       	pop	r6
    1ea2:	5f 90       	pop	r5
    1ea4:	4f 90       	pop	r4
    1ea6:	3f 90       	pop	r3
    1ea8:	2f 90       	pop	r2
    1eaa:	91 cd       	rjmp	.-1246   	; 0x19ce <EndPageProgramming>

00001eac <ExitParallelProgrammingMode>:
    1eac:	7c d8       	rcall	.-3848   	; 0xfa6 <disableVppRegulator>
    1eae:	7f d8       	rcall	.-3842   	; 0xfae <disableVccRegulator>
    1eb0:	98 d8       	rcall	.-3792   	; 0xfe2 <disableVLogic>
    1eb2:	8f e0       	ldi	r24, 0x0F	; 15
    1eb4:	97 e2       	ldi	r25, 0x27	; 39
    1eb6:	01 97       	sbiw	r24, 0x01	; 1
    1eb8:	f1 f7       	brne	.-4      	; 0x1eb6 <ExitParallelProgrammingMode+0xa>
    1eba:	00 c0       	rjmp	.+0      	; 0x1ebc <ExitParallelProgrammingMode+0x10>
    1ebc:	00 00       	nop
    1ebe:	10 92 0b 01 	sts	0x010B, r1
    1ec2:	1b b8       	out	0x0b, r1	; 11
    1ec4:	8f ec       	ldi	r24, 0xCF	; 207
    1ec6:	97 e0       	ldi	r25, 0x07	; 7
    1ec8:	01 97       	sbiw	r24, 0x01	; 1
    1eca:	f1 f7       	brne	.-4      	; 0x1ec8 <ExitParallelProgrammingMode+0x1c>
    1ecc:	00 c0       	rjmp	.+0      	; 0x1ece <ExitParallelProgrammingMode+0x22>
    1ece:	00 00       	nop
    1ed0:	80 e0       	ldi	r24, 0x00	; 0
    1ed2:	0e 94 97 05 	call	0xb2e	; 0xb2e <SPI_FPGA_Write>
    1ed6:	e5 e0       	ldi	r30, 0x05	; 5
    1ed8:	f1 e0       	ldi	r31, 0x01	; 1
    1eda:	80 81       	ld	r24, Z
    1edc:	8f 7d       	andi	r24, 0xDF	; 223
    1ede:	80 83       	st	Z, r24
    1ee0:	95 e3       	ldi	r25, 0x35	; 53
    1ee2:	9a 95       	dec	r25
    1ee4:	f1 f7       	brne	.-4      	; 0x1ee2 <ExitParallelProgrammingMode+0x36>
    1ee6:	00 00       	nop
    1ee8:	80 81       	ld	r24, Z
    1eea:	80 62       	ori	r24, 0x20	; 32
    1eec:	80 83       	st	Z, r24
    1eee:	2d e0       	ldi	r18, 0x0D	; 13
    1ef0:	2a 95       	dec	r18
    1ef2:	f1 f7       	brne	.-4      	; 0x1ef0 <ExitParallelProgrammingMode+0x44>
    1ef4:	00 00       	nop
    1ef6:	80 81       	ld	r24, Z
    1ef8:	80 61       	ori	r24, 0x10	; 16
    1efa:	80 83       	st	Z, r24
    1efc:	85 e3       	ldi	r24, 0x35	; 53
    1efe:	8a 95       	dec	r24
    1f00:	f1 f7       	brne	.-4      	; 0x1efe <ExitParallelProgrammingMode+0x52>
    1f02:	00 00       	nop
    1f04:	80 81       	ld	r24, Z
    1f06:	8f 7e       	andi	r24, 0xEF	; 239
    1f08:	80 83       	st	Z, r24
    1f0a:	80 81       	ld	r24, Z
    1f0c:	88 60       	ori	r24, 0x08	; 8
    1f0e:	80 83       	st	Z, r24
    1f10:	84 b3       	in	r24, 0x14	; 20
    1f12:	87 60       	ori	r24, 0x07	; 7
    1f14:	84 bb       	out	0x14, r24	; 20
    1f16:	9f ef       	ldi	r25, 0xFF	; 255
    1f18:	29 e6       	ldi	r18, 0x69	; 105
    1f1a:	88 e1       	ldi	r24, 0x18	; 24
    1f1c:	91 50       	subi	r25, 0x01	; 1
    1f1e:	20 40       	sbci	r18, 0x00	; 0
    1f20:	80 40       	sbci	r24, 0x00	; 0
    1f22:	e1 f7       	brne	.-8      	; 0x1f1c <ExitParallelProgrammingMode+0x70>
    1f24:	00 c0       	rjmp	.+0      	; 0x1f26 <ExitParallelProgrammingMode+0x7a>
    1f26:	00 00       	nop
    1f28:	a0 9a       	sbi	0x14, 0	; 20
    1f2a:	84 b3       	in	r24, 0x14	; 20
    1f2c:	89 7f       	andi	r24, 0xF9	; 249
    1f2e:	84 bb       	out	0x14, r24	; 20
    1f30:	08 95       	ret

00001f32 <main>:
    1f32:	2f ef       	ldi	r18, 0xFF	; 255
    1f34:	89 e6       	ldi	r24, 0x69	; 105
    1f36:	98 e1       	ldi	r25, 0x18	; 24
    1f38:	21 50       	subi	r18, 0x01	; 1
    1f3a:	80 40       	sbci	r24, 0x00	; 0
    1f3c:	90 40       	sbci	r25, 0x00	; 0
    1f3e:	e1 f7       	brne	.-8      	; 0x1f38 <main+0x6>
    1f40:	00 c0       	rjmp	.+0      	; 0x1f42 <main+0x10>
    1f42:	00 00       	nop
    1f44:	0e 94 ad 00 	call	0x15a	; 0x15a <connectionInit>
    1f48:	0a db       	rcall	.-2540   	; 0x155e <hexInit>
    1f4a:	86 ec       	ldi	r24, 0xC6	; 198
    1f4c:	93 e0       	ldi	r25, 0x03	; 3
    1f4e:	7e d0       	rcall	.+252    	; 0x204c <puts>
    1f50:	5e db       	rcall	.-2372   	; 0x160e <writeHexFileTest>
    1f52:	62 e3       	ldi	r22, 0x32	; 50
    1f54:	70 e0       	ldi	r23, 0x00	; 0
    1f56:	80 e0       	ldi	r24, 0x00	; 0
    1f58:	90 e0       	ldi	r25, 0x00	; 0
    1f5a:	0e 94 74 06 	call	0xce8	; 0xce8 <RAMPrint>
    1f5e:	61 e1       	ldi	r22, 0x11	; 17
    1f60:	75 e9       	ldi	r23, 0x95	; 149
    1f62:	8e e1       	ldi	r24, 0x1E	; 30
    1f64:	90 e0       	ldi	r25, 0x00	; 0
    1f66:	cf db       	rcall	.-2146   	; 0x1706 <Program>
    1f68:	82 e6       	ldi	r24, 0x62	; 98
    1f6a:	98 e0       	ldi	r25, 0x08	; 8
    1f6c:	6f d0       	rcall	.+222    	; 0x204c <puts>
    1f6e:	ff cf       	rjmp	.-2      	; 0x1f6e <main+0x3c>

00001f70 <__udivmodhi4>:
    1f70:	aa 1b       	sub	r26, r26
    1f72:	bb 1b       	sub	r27, r27
    1f74:	51 e1       	ldi	r21, 0x11	; 17
    1f76:	07 c0       	rjmp	.+14     	; 0x1f86 <__udivmodhi4_ep>

00001f78 <__udivmodhi4_loop>:
    1f78:	aa 1f       	adc	r26, r26
    1f7a:	bb 1f       	adc	r27, r27
    1f7c:	a6 17       	cp	r26, r22
    1f7e:	b7 07       	cpc	r27, r23
    1f80:	10 f0       	brcs	.+4      	; 0x1f86 <__udivmodhi4_ep>
    1f82:	a6 1b       	sub	r26, r22
    1f84:	b7 0b       	sbc	r27, r23

00001f86 <__udivmodhi4_ep>:
    1f86:	88 1f       	adc	r24, r24
    1f88:	99 1f       	adc	r25, r25
    1f8a:	5a 95       	dec	r21
    1f8c:	a9 f7       	brne	.-22     	; 0x1f78 <__udivmodhi4_loop>
    1f8e:	80 95       	com	r24
    1f90:	90 95       	com	r25
    1f92:	bc 01       	movw	r22, r24
    1f94:	cd 01       	movw	r24, r26
    1f96:	08 95       	ret

00001f98 <strcat>:
    1f98:	fb 01       	movw	r30, r22
    1f9a:	dc 01       	movw	r26, r24
    1f9c:	0d 90       	ld	r0, X+
    1f9e:	00 20       	and	r0, r0
    1fa0:	e9 f7       	brne	.-6      	; 0x1f9c <strcat+0x4>
    1fa2:	11 97       	sbiw	r26, 0x01	; 1
    1fa4:	01 90       	ld	r0, Z+
    1fa6:	0d 92       	st	X+, r0
    1fa8:	00 20       	and	r0, r0
    1faa:	e1 f7       	brne	.-8      	; 0x1fa4 <strcat+0xc>
    1fac:	08 95       	ret

00001fae <strcpy>:
    1fae:	fb 01       	movw	r30, r22
    1fb0:	dc 01       	movw	r26, r24
    1fb2:	01 90       	ld	r0, Z+
    1fb4:	0d 92       	st	X+, r0
    1fb6:	00 20       	and	r0, r0
    1fb8:	e1 f7       	brne	.-8      	; 0x1fb2 <strcpy+0x4>
    1fba:	08 95       	ret

00001fbc <fputc>:
    1fbc:	0f 93       	push	r16
    1fbe:	1f 93       	push	r17
    1fc0:	cf 93       	push	r28
    1fc2:	df 93       	push	r29
    1fc4:	18 2f       	mov	r17, r24
    1fc6:	09 2f       	mov	r16, r25
    1fc8:	eb 01       	movw	r28, r22
    1fca:	8b 81       	ldd	r24, Y+3	; 0x03
    1fcc:	81 fd       	sbrc	r24, 1
    1fce:	03 c0       	rjmp	.+6      	; 0x1fd6 <fputc+0x1a>
    1fd0:	8f ef       	ldi	r24, 0xFF	; 255
    1fd2:	9f ef       	ldi	r25, 0xFF	; 255
    1fd4:	20 c0       	rjmp	.+64     	; 0x2016 <fputc+0x5a>
    1fd6:	82 ff       	sbrs	r24, 2
    1fd8:	10 c0       	rjmp	.+32     	; 0x1ffa <fputc+0x3e>
    1fda:	4e 81       	ldd	r20, Y+6	; 0x06
    1fdc:	5f 81       	ldd	r21, Y+7	; 0x07
    1fde:	2c 81       	ldd	r18, Y+4	; 0x04
    1fe0:	3d 81       	ldd	r19, Y+5	; 0x05
    1fe2:	42 17       	cp	r20, r18
    1fe4:	53 07       	cpc	r21, r19
    1fe6:	7c f4       	brge	.+30     	; 0x2006 <fputc+0x4a>
    1fe8:	e8 81       	ld	r30, Y
    1fea:	f9 81       	ldd	r31, Y+1	; 0x01
    1fec:	9f 01       	movw	r18, r30
    1fee:	2f 5f       	subi	r18, 0xFF	; 255
    1ff0:	3f 4f       	sbci	r19, 0xFF	; 255
    1ff2:	39 83       	std	Y+1, r19	; 0x01
    1ff4:	28 83       	st	Y, r18
    1ff6:	10 83       	st	Z, r17
    1ff8:	06 c0       	rjmp	.+12     	; 0x2006 <fputc+0x4a>
    1ffa:	e8 85       	ldd	r30, Y+8	; 0x08
    1ffc:	f9 85       	ldd	r31, Y+9	; 0x09
    1ffe:	81 2f       	mov	r24, r17
    2000:	09 95       	icall
    2002:	89 2b       	or	r24, r25
    2004:	29 f7       	brne	.-54     	; 0x1fd0 <fputc+0x14>
    2006:	2e 81       	ldd	r18, Y+6	; 0x06
    2008:	3f 81       	ldd	r19, Y+7	; 0x07
    200a:	2f 5f       	subi	r18, 0xFF	; 255
    200c:	3f 4f       	sbci	r19, 0xFF	; 255
    200e:	3f 83       	std	Y+7, r19	; 0x07
    2010:	2e 83       	std	Y+6, r18	; 0x06
    2012:	81 2f       	mov	r24, r17
    2014:	90 2f       	mov	r25, r16
    2016:	df 91       	pop	r29
    2018:	cf 91       	pop	r28
    201a:	1f 91       	pop	r17
    201c:	0f 91       	pop	r16
    201e:	08 95       	ret

00002020 <printf>:
    2020:	cf 93       	push	r28
    2022:	df 93       	push	r29
    2024:	cd b7       	in	r28, 0x3d	; 61
    2026:	de b7       	in	r29, 0x3e	; 62
    2028:	fe 01       	movw	r30, r28
    202a:	35 96       	adiw	r30, 0x05	; 5
    202c:	61 91       	ld	r22, Z+
    202e:	71 91       	ld	r23, Z+
    2030:	af 01       	movw	r20, r30
    2032:	80 91 46 0a 	lds	r24, 0x0A46
    2036:	90 91 47 0a 	lds	r25, 0x0A47
    203a:	35 d0       	rcall	.+106    	; 0x20a6 <vfprintf>
    203c:	df 91       	pop	r29
    203e:	cf 91       	pop	r28
    2040:	08 95       	ret

00002042 <putchar>:
    2042:	60 91 46 0a 	lds	r22, 0x0A46
    2046:	70 91 47 0a 	lds	r23, 0x0A47
    204a:	b8 cf       	rjmp	.-144    	; 0x1fbc <fputc>

0000204c <puts>:
    204c:	0f 93       	push	r16
    204e:	1f 93       	push	r17
    2050:	cf 93       	push	r28
    2052:	df 93       	push	r29
    2054:	e0 91 46 0a 	lds	r30, 0x0A46
    2058:	f0 91 47 0a 	lds	r31, 0x0A47
    205c:	23 81       	ldd	r18, Z+3	; 0x03
    205e:	21 ff       	sbrs	r18, 1
    2060:	1b c0       	rjmp	.+54     	; 0x2098 <puts+0x4c>
    2062:	ec 01       	movw	r28, r24
    2064:	00 e0       	ldi	r16, 0x00	; 0
    2066:	10 e0       	ldi	r17, 0x00	; 0
    2068:	89 91       	ld	r24, Y+
    206a:	60 91 46 0a 	lds	r22, 0x0A46
    206e:	70 91 47 0a 	lds	r23, 0x0A47
    2072:	db 01       	movw	r26, r22
    2074:	18 96       	adiw	r26, 0x08	; 8
    2076:	ed 91       	ld	r30, X+
    2078:	fc 91       	ld	r31, X
    207a:	19 97       	sbiw	r26, 0x09	; 9
    207c:	88 23       	and	r24, r24
    207e:	31 f0       	breq	.+12     	; 0x208c <puts+0x40>
    2080:	09 95       	icall
    2082:	89 2b       	or	r24, r25
    2084:	89 f3       	breq	.-30     	; 0x2068 <puts+0x1c>
    2086:	0f ef       	ldi	r16, 0xFF	; 255
    2088:	1f ef       	ldi	r17, 0xFF	; 255
    208a:	ee cf       	rjmp	.-36     	; 0x2068 <puts+0x1c>
    208c:	8a e0       	ldi	r24, 0x0A	; 10
    208e:	09 95       	icall
    2090:	89 2b       	or	r24, r25
    2092:	11 f4       	brne	.+4      	; 0x2098 <puts+0x4c>
    2094:	c8 01       	movw	r24, r16
    2096:	02 c0       	rjmp	.+4      	; 0x209c <puts+0x50>
    2098:	8f ef       	ldi	r24, 0xFF	; 255
    209a:	9f ef       	ldi	r25, 0xFF	; 255
    209c:	df 91       	pop	r29
    209e:	cf 91       	pop	r28
    20a0:	1f 91       	pop	r17
    20a2:	0f 91       	pop	r16
    20a4:	08 95       	ret

000020a6 <vfprintf>:
    20a6:	2f 92       	push	r2
    20a8:	3f 92       	push	r3
    20aa:	4f 92       	push	r4
    20ac:	5f 92       	push	r5
    20ae:	6f 92       	push	r6
    20b0:	7f 92       	push	r7
    20b2:	8f 92       	push	r8
    20b4:	9f 92       	push	r9
    20b6:	af 92       	push	r10
    20b8:	bf 92       	push	r11
    20ba:	cf 92       	push	r12
    20bc:	df 92       	push	r13
    20be:	ef 92       	push	r14
    20c0:	ff 92       	push	r15
    20c2:	0f 93       	push	r16
    20c4:	1f 93       	push	r17
    20c6:	cf 93       	push	r28
    20c8:	df 93       	push	r29
    20ca:	cd b7       	in	r28, 0x3d	; 61
    20cc:	de b7       	in	r29, 0x3e	; 62
    20ce:	2c 97       	sbiw	r28, 0x0c	; 12
    20d0:	0f b6       	in	r0, 0x3f	; 63
    20d2:	f8 94       	cli
    20d4:	de bf       	out	0x3e, r29	; 62
    20d6:	0f be       	out	0x3f, r0	; 63
    20d8:	cd bf       	out	0x3d, r28	; 61
    20da:	7c 01       	movw	r14, r24
    20dc:	6b 01       	movw	r12, r22
    20de:	8a 01       	movw	r16, r20
    20e0:	fc 01       	movw	r30, r24
    20e2:	17 82       	std	Z+7, r1	; 0x07
    20e4:	16 82       	std	Z+6, r1	; 0x06
    20e6:	83 81       	ldd	r24, Z+3	; 0x03
    20e8:	81 ff       	sbrs	r24, 1
    20ea:	b0 c1       	rjmp	.+864    	; 0x244c <__stack+0x24d>
    20ec:	ce 01       	movw	r24, r28
    20ee:	01 96       	adiw	r24, 0x01	; 1
    20f0:	4c 01       	movw	r8, r24
    20f2:	f7 01       	movw	r30, r14
    20f4:	93 81       	ldd	r25, Z+3	; 0x03
    20f6:	f6 01       	movw	r30, r12
    20f8:	93 fd       	sbrc	r25, 3
    20fa:	85 91       	lpm	r24, Z+
    20fc:	93 ff       	sbrs	r25, 3
    20fe:	81 91       	ld	r24, Z+
    2100:	6f 01       	movw	r12, r30
    2102:	88 23       	and	r24, r24
    2104:	09 f4       	brne	.+2      	; 0x2108 <vfprintf+0x62>
    2106:	9e c1       	rjmp	.+828    	; 0x2444 <__stack+0x245>
    2108:	85 32       	cpi	r24, 0x25	; 37
    210a:	39 f4       	brne	.+14     	; 0x211a <vfprintf+0x74>
    210c:	93 fd       	sbrc	r25, 3
    210e:	85 91       	lpm	r24, Z+
    2110:	93 ff       	sbrs	r25, 3
    2112:	81 91       	ld	r24, Z+
    2114:	6f 01       	movw	r12, r30
    2116:	85 32       	cpi	r24, 0x25	; 37
    2118:	21 f4       	brne	.+8      	; 0x2122 <vfprintf+0x7c>
    211a:	b7 01       	movw	r22, r14
    211c:	90 e0       	ldi	r25, 0x00	; 0
    211e:	4e df       	rcall	.-356    	; 0x1fbc <fputc>
    2120:	e8 cf       	rjmp	.-48     	; 0x20f2 <vfprintf+0x4c>
    2122:	51 2c       	mov	r5, r1
    2124:	31 2c       	mov	r3, r1
    2126:	20 e0       	ldi	r18, 0x00	; 0
    2128:	20 32       	cpi	r18, 0x20	; 32
    212a:	a0 f4       	brcc	.+40     	; 0x2154 <vfprintf+0xae>
    212c:	8b 32       	cpi	r24, 0x2B	; 43
    212e:	69 f0       	breq	.+26     	; 0x214a <vfprintf+0xa4>
    2130:	30 f4       	brcc	.+12     	; 0x213e <vfprintf+0x98>
    2132:	80 32       	cpi	r24, 0x20	; 32
    2134:	59 f0       	breq	.+22     	; 0x214c <vfprintf+0xa6>
    2136:	83 32       	cpi	r24, 0x23	; 35
    2138:	69 f4       	brne	.+26     	; 0x2154 <vfprintf+0xae>
    213a:	20 61       	ori	r18, 0x10	; 16
    213c:	2c c0       	rjmp	.+88     	; 0x2196 <vfprintf+0xf0>
    213e:	8d 32       	cpi	r24, 0x2D	; 45
    2140:	39 f0       	breq	.+14     	; 0x2150 <vfprintf+0xaa>
    2142:	80 33       	cpi	r24, 0x30	; 48
    2144:	39 f4       	brne	.+14     	; 0x2154 <vfprintf+0xae>
    2146:	21 60       	ori	r18, 0x01	; 1
    2148:	26 c0       	rjmp	.+76     	; 0x2196 <vfprintf+0xf0>
    214a:	22 60       	ori	r18, 0x02	; 2
    214c:	24 60       	ori	r18, 0x04	; 4
    214e:	23 c0       	rjmp	.+70     	; 0x2196 <vfprintf+0xf0>
    2150:	28 60       	ori	r18, 0x08	; 8
    2152:	21 c0       	rjmp	.+66     	; 0x2196 <vfprintf+0xf0>
    2154:	27 fd       	sbrc	r18, 7
    2156:	27 c0       	rjmp	.+78     	; 0x21a6 <vfprintf+0x100>
    2158:	30 ed       	ldi	r19, 0xD0	; 208
    215a:	38 0f       	add	r19, r24
    215c:	3a 30       	cpi	r19, 0x0A	; 10
    215e:	78 f4       	brcc	.+30     	; 0x217e <vfprintf+0xd8>
    2160:	26 ff       	sbrs	r18, 6
    2162:	06 c0       	rjmp	.+12     	; 0x2170 <vfprintf+0xca>
    2164:	fa e0       	ldi	r31, 0x0A	; 10
    2166:	5f 9e       	mul	r5, r31
    2168:	30 0d       	add	r19, r0
    216a:	11 24       	eor	r1, r1
    216c:	53 2e       	mov	r5, r19
    216e:	13 c0       	rjmp	.+38     	; 0x2196 <vfprintf+0xf0>
    2170:	8a e0       	ldi	r24, 0x0A	; 10
    2172:	38 9e       	mul	r3, r24
    2174:	30 0d       	add	r19, r0
    2176:	11 24       	eor	r1, r1
    2178:	33 2e       	mov	r3, r19
    217a:	20 62       	ori	r18, 0x20	; 32
    217c:	0c c0       	rjmp	.+24     	; 0x2196 <vfprintf+0xf0>
    217e:	8e 32       	cpi	r24, 0x2E	; 46
    2180:	21 f4       	brne	.+8      	; 0x218a <vfprintf+0xe4>
    2182:	26 fd       	sbrc	r18, 6
    2184:	5f c1       	rjmp	.+702    	; 0x2444 <__stack+0x245>
    2186:	20 64       	ori	r18, 0x40	; 64
    2188:	06 c0       	rjmp	.+12     	; 0x2196 <vfprintf+0xf0>
    218a:	8c 36       	cpi	r24, 0x6C	; 108
    218c:	11 f4       	brne	.+4      	; 0x2192 <vfprintf+0xec>
    218e:	20 68       	ori	r18, 0x80	; 128
    2190:	02 c0       	rjmp	.+4      	; 0x2196 <vfprintf+0xf0>
    2192:	88 36       	cpi	r24, 0x68	; 104
    2194:	41 f4       	brne	.+16     	; 0x21a6 <vfprintf+0x100>
    2196:	f6 01       	movw	r30, r12
    2198:	93 fd       	sbrc	r25, 3
    219a:	85 91       	lpm	r24, Z+
    219c:	93 ff       	sbrs	r25, 3
    219e:	81 91       	ld	r24, Z+
    21a0:	6f 01       	movw	r12, r30
    21a2:	81 11       	cpse	r24, r1
    21a4:	c1 cf       	rjmp	.-126    	; 0x2128 <vfprintf+0x82>
    21a6:	98 2f       	mov	r25, r24
    21a8:	9f 7d       	andi	r25, 0xDF	; 223
    21aa:	95 54       	subi	r25, 0x45	; 69
    21ac:	93 30       	cpi	r25, 0x03	; 3
    21ae:	28 f4       	brcc	.+10     	; 0x21ba <vfprintf+0x114>
    21b0:	0c 5f       	subi	r16, 0xFC	; 252
    21b2:	1f 4f       	sbci	r17, 0xFF	; 255
    21b4:	ff e3       	ldi	r31, 0x3F	; 63
    21b6:	f9 83       	std	Y+1, r31	; 0x01
    21b8:	0d c0       	rjmp	.+26     	; 0x21d4 <vfprintf+0x12e>
    21ba:	83 36       	cpi	r24, 0x63	; 99
    21bc:	31 f0       	breq	.+12     	; 0x21ca <vfprintf+0x124>
    21be:	83 37       	cpi	r24, 0x73	; 115
    21c0:	71 f0       	breq	.+28     	; 0x21de <vfprintf+0x138>
    21c2:	83 35       	cpi	r24, 0x53	; 83
    21c4:	09 f0       	breq	.+2      	; 0x21c8 <vfprintf+0x122>
    21c6:	57 c0       	rjmp	.+174    	; 0x2276 <__stack+0x77>
    21c8:	21 c0       	rjmp	.+66     	; 0x220c <__stack+0xd>
    21ca:	f8 01       	movw	r30, r16
    21cc:	80 81       	ld	r24, Z
    21ce:	89 83       	std	Y+1, r24	; 0x01
    21d0:	0e 5f       	subi	r16, 0xFE	; 254
    21d2:	1f 4f       	sbci	r17, 0xFF	; 255
    21d4:	44 24       	eor	r4, r4
    21d6:	43 94       	inc	r4
    21d8:	51 2c       	mov	r5, r1
    21da:	54 01       	movw	r10, r8
    21dc:	14 c0       	rjmp	.+40     	; 0x2206 <__stack+0x7>
    21de:	38 01       	movw	r6, r16
    21e0:	f2 e0       	ldi	r31, 0x02	; 2
    21e2:	6f 0e       	add	r6, r31
    21e4:	71 1c       	adc	r7, r1
    21e6:	f8 01       	movw	r30, r16
    21e8:	a0 80       	ld	r10, Z
    21ea:	b1 80       	ldd	r11, Z+1	; 0x01
    21ec:	26 ff       	sbrs	r18, 6
    21ee:	03 c0       	rjmp	.+6      	; 0x21f6 <vfprintf+0x150>
    21f0:	65 2d       	mov	r22, r5
    21f2:	70 e0       	ldi	r23, 0x00	; 0
    21f4:	02 c0       	rjmp	.+4      	; 0x21fa <vfprintf+0x154>
    21f6:	6f ef       	ldi	r22, 0xFF	; 255
    21f8:	7f ef       	ldi	r23, 0xFF	; 255
    21fa:	c5 01       	movw	r24, r10
    21fc:	2c 87       	std	Y+12, r18	; 0x0c
    21fe:	4c d1       	rcall	.+664    	; 0x2498 <strnlen>
    2200:	2c 01       	movw	r4, r24
    2202:	83 01       	movw	r16, r6
    2204:	2c 85       	ldd	r18, Y+12	; 0x0c
    2206:	2f 77       	andi	r18, 0x7F	; 127
    2208:	22 2e       	mov	r2, r18
    220a:	16 c0       	rjmp	.+44     	; 0x2238 <__stack+0x39>
    220c:	38 01       	movw	r6, r16
    220e:	f2 e0       	ldi	r31, 0x02	; 2
    2210:	6f 0e       	add	r6, r31
    2212:	71 1c       	adc	r7, r1
    2214:	f8 01       	movw	r30, r16
    2216:	a0 80       	ld	r10, Z
    2218:	b1 80       	ldd	r11, Z+1	; 0x01
    221a:	26 ff       	sbrs	r18, 6
    221c:	03 c0       	rjmp	.+6      	; 0x2224 <__stack+0x25>
    221e:	65 2d       	mov	r22, r5
    2220:	70 e0       	ldi	r23, 0x00	; 0
    2222:	02 c0       	rjmp	.+4      	; 0x2228 <__stack+0x29>
    2224:	6f ef       	ldi	r22, 0xFF	; 255
    2226:	7f ef       	ldi	r23, 0xFF	; 255
    2228:	c5 01       	movw	r24, r10
    222a:	2c 87       	std	Y+12, r18	; 0x0c
    222c:	2a d1       	rcall	.+596    	; 0x2482 <strnlen_P>
    222e:	2c 01       	movw	r4, r24
    2230:	2c 85       	ldd	r18, Y+12	; 0x0c
    2232:	20 68       	ori	r18, 0x80	; 128
    2234:	22 2e       	mov	r2, r18
    2236:	83 01       	movw	r16, r6
    2238:	23 fc       	sbrc	r2, 3
    223a:	19 c0       	rjmp	.+50     	; 0x226e <__stack+0x6f>
    223c:	83 2d       	mov	r24, r3
    223e:	90 e0       	ldi	r25, 0x00	; 0
    2240:	48 16       	cp	r4, r24
    2242:	59 06       	cpc	r5, r25
    2244:	a0 f4       	brcc	.+40     	; 0x226e <__stack+0x6f>
    2246:	b7 01       	movw	r22, r14
    2248:	80 e2       	ldi	r24, 0x20	; 32
    224a:	90 e0       	ldi	r25, 0x00	; 0
    224c:	b7 de       	rcall	.-658    	; 0x1fbc <fputc>
    224e:	3a 94       	dec	r3
    2250:	f5 cf       	rjmp	.-22     	; 0x223c <__stack+0x3d>
    2252:	f5 01       	movw	r30, r10
    2254:	27 fc       	sbrc	r2, 7
    2256:	85 91       	lpm	r24, Z+
    2258:	27 fe       	sbrs	r2, 7
    225a:	81 91       	ld	r24, Z+
    225c:	5f 01       	movw	r10, r30
    225e:	b7 01       	movw	r22, r14
    2260:	90 e0       	ldi	r25, 0x00	; 0
    2262:	ac de       	rcall	.-680    	; 0x1fbc <fputc>
    2264:	31 10       	cpse	r3, r1
    2266:	3a 94       	dec	r3
    2268:	f1 e0       	ldi	r31, 0x01	; 1
    226a:	4f 1a       	sub	r4, r31
    226c:	51 08       	sbc	r5, r1
    226e:	41 14       	cp	r4, r1
    2270:	51 04       	cpc	r5, r1
    2272:	79 f7       	brne	.-34     	; 0x2252 <__stack+0x53>
    2274:	de c0       	rjmp	.+444    	; 0x2432 <__stack+0x233>
    2276:	84 36       	cpi	r24, 0x64	; 100
    2278:	11 f0       	breq	.+4      	; 0x227e <__stack+0x7f>
    227a:	89 36       	cpi	r24, 0x69	; 105
    227c:	31 f5       	brne	.+76     	; 0x22ca <__stack+0xcb>
    227e:	f8 01       	movw	r30, r16
    2280:	27 ff       	sbrs	r18, 7
    2282:	07 c0       	rjmp	.+14     	; 0x2292 <__stack+0x93>
    2284:	60 81       	ld	r22, Z
    2286:	71 81       	ldd	r23, Z+1	; 0x01
    2288:	82 81       	ldd	r24, Z+2	; 0x02
    228a:	93 81       	ldd	r25, Z+3	; 0x03
    228c:	0c 5f       	subi	r16, 0xFC	; 252
    228e:	1f 4f       	sbci	r17, 0xFF	; 255
    2290:	08 c0       	rjmp	.+16     	; 0x22a2 <__stack+0xa3>
    2292:	60 81       	ld	r22, Z
    2294:	71 81       	ldd	r23, Z+1	; 0x01
    2296:	88 27       	eor	r24, r24
    2298:	77 fd       	sbrc	r23, 7
    229a:	80 95       	com	r24
    229c:	98 2f       	mov	r25, r24
    229e:	0e 5f       	subi	r16, 0xFE	; 254
    22a0:	1f 4f       	sbci	r17, 0xFF	; 255
    22a2:	2f 76       	andi	r18, 0x6F	; 111
    22a4:	b2 2e       	mov	r11, r18
    22a6:	97 ff       	sbrs	r25, 7
    22a8:	09 c0       	rjmp	.+18     	; 0x22bc <__stack+0xbd>
    22aa:	90 95       	com	r25
    22ac:	80 95       	com	r24
    22ae:	70 95       	com	r23
    22b0:	61 95       	neg	r22
    22b2:	7f 4f       	sbci	r23, 0xFF	; 255
    22b4:	8f 4f       	sbci	r24, 0xFF	; 255
    22b6:	9f 4f       	sbci	r25, 0xFF	; 255
    22b8:	20 68       	ori	r18, 0x80	; 128
    22ba:	b2 2e       	mov	r11, r18
    22bc:	2a e0       	ldi	r18, 0x0A	; 10
    22be:	30 e0       	ldi	r19, 0x00	; 0
    22c0:	a4 01       	movw	r20, r8
    22c2:	f5 d0       	rcall	.+490    	; 0x24ae <__ultoa_invert>
    22c4:	a8 2e       	mov	r10, r24
    22c6:	a8 18       	sub	r10, r8
    22c8:	43 c0       	rjmp	.+134    	; 0x2350 <__stack+0x151>
    22ca:	85 37       	cpi	r24, 0x75	; 117
    22cc:	29 f4       	brne	.+10     	; 0x22d8 <__stack+0xd9>
    22ce:	2f 7e       	andi	r18, 0xEF	; 239
    22d0:	b2 2e       	mov	r11, r18
    22d2:	2a e0       	ldi	r18, 0x0A	; 10
    22d4:	30 e0       	ldi	r19, 0x00	; 0
    22d6:	25 c0       	rjmp	.+74     	; 0x2322 <__stack+0x123>
    22d8:	f2 2f       	mov	r31, r18
    22da:	f9 7f       	andi	r31, 0xF9	; 249
    22dc:	bf 2e       	mov	r11, r31
    22de:	8f 36       	cpi	r24, 0x6F	; 111
    22e0:	c1 f0       	breq	.+48     	; 0x2312 <__stack+0x113>
    22e2:	18 f4       	brcc	.+6      	; 0x22ea <__stack+0xeb>
    22e4:	88 35       	cpi	r24, 0x58	; 88
    22e6:	79 f0       	breq	.+30     	; 0x2306 <__stack+0x107>
    22e8:	ad c0       	rjmp	.+346    	; 0x2444 <__stack+0x245>
    22ea:	80 37       	cpi	r24, 0x70	; 112
    22ec:	19 f0       	breq	.+6      	; 0x22f4 <__stack+0xf5>
    22ee:	88 37       	cpi	r24, 0x78	; 120
    22f0:	21 f0       	breq	.+8      	; 0x22fa <__stack+0xfb>
    22f2:	a8 c0       	rjmp	.+336    	; 0x2444 <__stack+0x245>
    22f4:	2f 2f       	mov	r18, r31
    22f6:	20 61       	ori	r18, 0x10	; 16
    22f8:	b2 2e       	mov	r11, r18
    22fa:	b4 fe       	sbrs	r11, 4
    22fc:	0d c0       	rjmp	.+26     	; 0x2318 <__stack+0x119>
    22fe:	8b 2d       	mov	r24, r11
    2300:	84 60       	ori	r24, 0x04	; 4
    2302:	b8 2e       	mov	r11, r24
    2304:	09 c0       	rjmp	.+18     	; 0x2318 <__stack+0x119>
    2306:	24 ff       	sbrs	r18, 4
    2308:	0a c0       	rjmp	.+20     	; 0x231e <__stack+0x11f>
    230a:	9f 2f       	mov	r25, r31
    230c:	96 60       	ori	r25, 0x06	; 6
    230e:	b9 2e       	mov	r11, r25
    2310:	06 c0       	rjmp	.+12     	; 0x231e <__stack+0x11f>
    2312:	28 e0       	ldi	r18, 0x08	; 8
    2314:	30 e0       	ldi	r19, 0x00	; 0
    2316:	05 c0       	rjmp	.+10     	; 0x2322 <__stack+0x123>
    2318:	20 e1       	ldi	r18, 0x10	; 16
    231a:	30 e0       	ldi	r19, 0x00	; 0
    231c:	02 c0       	rjmp	.+4      	; 0x2322 <__stack+0x123>
    231e:	20 e1       	ldi	r18, 0x10	; 16
    2320:	32 e0       	ldi	r19, 0x02	; 2
    2322:	f8 01       	movw	r30, r16
    2324:	b7 fe       	sbrs	r11, 7
    2326:	07 c0       	rjmp	.+14     	; 0x2336 <__stack+0x137>
    2328:	60 81       	ld	r22, Z
    232a:	71 81       	ldd	r23, Z+1	; 0x01
    232c:	82 81       	ldd	r24, Z+2	; 0x02
    232e:	93 81       	ldd	r25, Z+3	; 0x03
    2330:	0c 5f       	subi	r16, 0xFC	; 252
    2332:	1f 4f       	sbci	r17, 0xFF	; 255
    2334:	06 c0       	rjmp	.+12     	; 0x2342 <__stack+0x143>
    2336:	60 81       	ld	r22, Z
    2338:	71 81       	ldd	r23, Z+1	; 0x01
    233a:	80 e0       	ldi	r24, 0x00	; 0
    233c:	90 e0       	ldi	r25, 0x00	; 0
    233e:	0e 5f       	subi	r16, 0xFE	; 254
    2340:	1f 4f       	sbci	r17, 0xFF	; 255
    2342:	a4 01       	movw	r20, r8
    2344:	b4 d0       	rcall	.+360    	; 0x24ae <__ultoa_invert>
    2346:	a8 2e       	mov	r10, r24
    2348:	a8 18       	sub	r10, r8
    234a:	fb 2d       	mov	r31, r11
    234c:	ff 77       	andi	r31, 0x7F	; 127
    234e:	bf 2e       	mov	r11, r31
    2350:	b6 fe       	sbrs	r11, 6
    2352:	0b c0       	rjmp	.+22     	; 0x236a <__stack+0x16b>
    2354:	2b 2d       	mov	r18, r11
    2356:	2e 7f       	andi	r18, 0xFE	; 254
    2358:	a5 14       	cp	r10, r5
    235a:	50 f4       	brcc	.+20     	; 0x2370 <__stack+0x171>
    235c:	b4 fe       	sbrs	r11, 4
    235e:	0a c0       	rjmp	.+20     	; 0x2374 <__stack+0x175>
    2360:	b2 fc       	sbrc	r11, 2
    2362:	08 c0       	rjmp	.+16     	; 0x2374 <__stack+0x175>
    2364:	2b 2d       	mov	r18, r11
    2366:	2e 7e       	andi	r18, 0xEE	; 238
    2368:	05 c0       	rjmp	.+10     	; 0x2374 <__stack+0x175>
    236a:	7a 2c       	mov	r7, r10
    236c:	2b 2d       	mov	r18, r11
    236e:	03 c0       	rjmp	.+6      	; 0x2376 <__stack+0x177>
    2370:	7a 2c       	mov	r7, r10
    2372:	01 c0       	rjmp	.+2      	; 0x2376 <__stack+0x177>
    2374:	75 2c       	mov	r7, r5
    2376:	24 ff       	sbrs	r18, 4
    2378:	0d c0       	rjmp	.+26     	; 0x2394 <__stack+0x195>
    237a:	fe 01       	movw	r30, r28
    237c:	ea 0d       	add	r30, r10
    237e:	f1 1d       	adc	r31, r1
    2380:	80 81       	ld	r24, Z
    2382:	80 33       	cpi	r24, 0x30	; 48
    2384:	11 f4       	brne	.+4      	; 0x238a <__stack+0x18b>
    2386:	29 7e       	andi	r18, 0xE9	; 233
    2388:	09 c0       	rjmp	.+18     	; 0x239c <__stack+0x19d>
    238a:	22 ff       	sbrs	r18, 2
    238c:	06 c0       	rjmp	.+12     	; 0x239a <__stack+0x19b>
    238e:	73 94       	inc	r7
    2390:	73 94       	inc	r7
    2392:	04 c0       	rjmp	.+8      	; 0x239c <__stack+0x19d>
    2394:	82 2f       	mov	r24, r18
    2396:	86 78       	andi	r24, 0x86	; 134
    2398:	09 f0       	breq	.+2      	; 0x239c <__stack+0x19d>
    239a:	73 94       	inc	r7
    239c:	23 fd       	sbrc	r18, 3
    239e:	12 c0       	rjmp	.+36     	; 0x23c4 <__stack+0x1c5>
    23a0:	20 ff       	sbrs	r18, 0
    23a2:	06 c0       	rjmp	.+12     	; 0x23b0 <__stack+0x1b1>
    23a4:	5a 2c       	mov	r5, r10
    23a6:	73 14       	cp	r7, r3
    23a8:	18 f4       	brcc	.+6      	; 0x23b0 <__stack+0x1b1>
    23aa:	53 0c       	add	r5, r3
    23ac:	57 18       	sub	r5, r7
    23ae:	73 2c       	mov	r7, r3
    23b0:	73 14       	cp	r7, r3
    23b2:	60 f4       	brcc	.+24     	; 0x23cc <__stack+0x1cd>
    23b4:	b7 01       	movw	r22, r14
    23b6:	80 e2       	ldi	r24, 0x20	; 32
    23b8:	90 e0       	ldi	r25, 0x00	; 0
    23ba:	2c 87       	std	Y+12, r18	; 0x0c
    23bc:	ff dd       	rcall	.-1026   	; 0x1fbc <fputc>
    23be:	73 94       	inc	r7
    23c0:	2c 85       	ldd	r18, Y+12	; 0x0c
    23c2:	f6 cf       	rjmp	.-20     	; 0x23b0 <__stack+0x1b1>
    23c4:	73 14       	cp	r7, r3
    23c6:	10 f4       	brcc	.+4      	; 0x23cc <__stack+0x1cd>
    23c8:	37 18       	sub	r3, r7
    23ca:	01 c0       	rjmp	.+2      	; 0x23ce <__stack+0x1cf>
    23cc:	31 2c       	mov	r3, r1
    23ce:	24 ff       	sbrs	r18, 4
    23d0:	11 c0       	rjmp	.+34     	; 0x23f4 <__stack+0x1f5>
    23d2:	b7 01       	movw	r22, r14
    23d4:	80 e3       	ldi	r24, 0x30	; 48
    23d6:	90 e0       	ldi	r25, 0x00	; 0
    23d8:	2c 87       	std	Y+12, r18	; 0x0c
    23da:	f0 dd       	rcall	.-1056   	; 0x1fbc <fputc>
    23dc:	2c 85       	ldd	r18, Y+12	; 0x0c
    23de:	22 ff       	sbrs	r18, 2
    23e0:	16 c0       	rjmp	.+44     	; 0x240e <__stack+0x20f>
    23e2:	21 ff       	sbrs	r18, 1
    23e4:	03 c0       	rjmp	.+6      	; 0x23ec <__stack+0x1ed>
    23e6:	88 e5       	ldi	r24, 0x58	; 88
    23e8:	90 e0       	ldi	r25, 0x00	; 0
    23ea:	02 c0       	rjmp	.+4      	; 0x23f0 <__stack+0x1f1>
    23ec:	88 e7       	ldi	r24, 0x78	; 120
    23ee:	90 e0       	ldi	r25, 0x00	; 0
    23f0:	b7 01       	movw	r22, r14
    23f2:	0c c0       	rjmp	.+24     	; 0x240c <__stack+0x20d>
    23f4:	82 2f       	mov	r24, r18
    23f6:	86 78       	andi	r24, 0x86	; 134
    23f8:	51 f0       	breq	.+20     	; 0x240e <__stack+0x20f>
    23fa:	21 fd       	sbrc	r18, 1
    23fc:	02 c0       	rjmp	.+4      	; 0x2402 <__stack+0x203>
    23fe:	80 e2       	ldi	r24, 0x20	; 32
    2400:	01 c0       	rjmp	.+2      	; 0x2404 <__stack+0x205>
    2402:	8b e2       	ldi	r24, 0x2B	; 43
    2404:	27 fd       	sbrc	r18, 7
    2406:	8d e2       	ldi	r24, 0x2D	; 45
    2408:	b7 01       	movw	r22, r14
    240a:	90 e0       	ldi	r25, 0x00	; 0
    240c:	d7 dd       	rcall	.-1106   	; 0x1fbc <fputc>
    240e:	a5 14       	cp	r10, r5
    2410:	30 f4       	brcc	.+12     	; 0x241e <__stack+0x21f>
    2412:	b7 01       	movw	r22, r14
    2414:	80 e3       	ldi	r24, 0x30	; 48
    2416:	90 e0       	ldi	r25, 0x00	; 0
    2418:	d1 dd       	rcall	.-1118   	; 0x1fbc <fputc>
    241a:	5a 94       	dec	r5
    241c:	f8 cf       	rjmp	.-16     	; 0x240e <__stack+0x20f>
    241e:	aa 94       	dec	r10
    2420:	f4 01       	movw	r30, r8
    2422:	ea 0d       	add	r30, r10
    2424:	f1 1d       	adc	r31, r1
    2426:	80 81       	ld	r24, Z
    2428:	b7 01       	movw	r22, r14
    242a:	90 e0       	ldi	r25, 0x00	; 0
    242c:	c7 dd       	rcall	.-1138   	; 0x1fbc <fputc>
    242e:	a1 10       	cpse	r10, r1
    2430:	f6 cf       	rjmp	.-20     	; 0x241e <__stack+0x21f>
    2432:	33 20       	and	r3, r3
    2434:	09 f4       	brne	.+2      	; 0x2438 <__stack+0x239>
    2436:	5d ce       	rjmp	.-838    	; 0x20f2 <vfprintf+0x4c>
    2438:	b7 01       	movw	r22, r14
    243a:	80 e2       	ldi	r24, 0x20	; 32
    243c:	90 e0       	ldi	r25, 0x00	; 0
    243e:	be dd       	rcall	.-1156   	; 0x1fbc <fputc>
    2440:	3a 94       	dec	r3
    2442:	f7 cf       	rjmp	.-18     	; 0x2432 <__stack+0x233>
    2444:	f7 01       	movw	r30, r14
    2446:	86 81       	ldd	r24, Z+6	; 0x06
    2448:	97 81       	ldd	r25, Z+7	; 0x07
    244a:	02 c0       	rjmp	.+4      	; 0x2450 <__stack+0x251>
    244c:	8f ef       	ldi	r24, 0xFF	; 255
    244e:	9f ef       	ldi	r25, 0xFF	; 255
    2450:	2c 96       	adiw	r28, 0x0c	; 12
    2452:	0f b6       	in	r0, 0x3f	; 63
    2454:	f8 94       	cli
    2456:	de bf       	out	0x3e, r29	; 62
    2458:	0f be       	out	0x3f, r0	; 63
    245a:	cd bf       	out	0x3d, r28	; 61
    245c:	df 91       	pop	r29
    245e:	cf 91       	pop	r28
    2460:	1f 91       	pop	r17
    2462:	0f 91       	pop	r16
    2464:	ff 90       	pop	r15
    2466:	ef 90       	pop	r14
    2468:	df 90       	pop	r13
    246a:	cf 90       	pop	r12
    246c:	bf 90       	pop	r11
    246e:	af 90       	pop	r10
    2470:	9f 90       	pop	r9
    2472:	8f 90       	pop	r8
    2474:	7f 90       	pop	r7
    2476:	6f 90       	pop	r6
    2478:	5f 90       	pop	r5
    247a:	4f 90       	pop	r4
    247c:	3f 90       	pop	r3
    247e:	2f 90       	pop	r2
    2480:	08 95       	ret

00002482 <strnlen_P>:
    2482:	fc 01       	movw	r30, r24
    2484:	05 90       	lpm	r0, Z+
    2486:	61 50       	subi	r22, 0x01	; 1
    2488:	70 40       	sbci	r23, 0x00	; 0
    248a:	01 10       	cpse	r0, r1
    248c:	d8 f7       	brcc	.-10     	; 0x2484 <strnlen_P+0x2>
    248e:	80 95       	com	r24
    2490:	90 95       	com	r25
    2492:	8e 0f       	add	r24, r30
    2494:	9f 1f       	adc	r25, r31
    2496:	08 95       	ret

00002498 <strnlen>:
    2498:	fc 01       	movw	r30, r24
    249a:	61 50       	subi	r22, 0x01	; 1
    249c:	70 40       	sbci	r23, 0x00	; 0
    249e:	01 90       	ld	r0, Z+
    24a0:	01 10       	cpse	r0, r1
    24a2:	d8 f7       	brcc	.-10     	; 0x249a <strnlen+0x2>
    24a4:	80 95       	com	r24
    24a6:	90 95       	com	r25
    24a8:	8e 0f       	add	r24, r30
    24aa:	9f 1f       	adc	r25, r31
    24ac:	08 95       	ret

000024ae <__ultoa_invert>:
    24ae:	fa 01       	movw	r30, r20
    24b0:	aa 27       	eor	r26, r26
    24b2:	28 30       	cpi	r18, 0x08	; 8
    24b4:	51 f1       	breq	.+84     	; 0x250a <__ultoa_invert+0x5c>
    24b6:	20 31       	cpi	r18, 0x10	; 16
    24b8:	81 f1       	breq	.+96     	; 0x251a <__ultoa_invert+0x6c>
    24ba:	e8 94       	clt
    24bc:	6f 93       	push	r22
    24be:	6e 7f       	andi	r22, 0xFE	; 254
    24c0:	6e 5f       	subi	r22, 0xFE	; 254
    24c2:	7f 4f       	sbci	r23, 0xFF	; 255
    24c4:	8f 4f       	sbci	r24, 0xFF	; 255
    24c6:	9f 4f       	sbci	r25, 0xFF	; 255
    24c8:	af 4f       	sbci	r26, 0xFF	; 255
    24ca:	b1 e0       	ldi	r27, 0x01	; 1
    24cc:	3e d0       	rcall	.+124    	; 0x254a <__ultoa_invert+0x9c>
    24ce:	b4 e0       	ldi	r27, 0x04	; 4
    24d0:	3c d0       	rcall	.+120    	; 0x254a <__ultoa_invert+0x9c>
    24d2:	67 0f       	add	r22, r23
    24d4:	78 1f       	adc	r23, r24
    24d6:	89 1f       	adc	r24, r25
    24d8:	9a 1f       	adc	r25, r26
    24da:	a1 1d       	adc	r26, r1
    24dc:	68 0f       	add	r22, r24
    24de:	79 1f       	adc	r23, r25
    24e0:	8a 1f       	adc	r24, r26
    24e2:	91 1d       	adc	r25, r1
    24e4:	a1 1d       	adc	r26, r1
    24e6:	6a 0f       	add	r22, r26
    24e8:	71 1d       	adc	r23, r1
    24ea:	81 1d       	adc	r24, r1
    24ec:	91 1d       	adc	r25, r1
    24ee:	a1 1d       	adc	r26, r1
    24f0:	20 d0       	rcall	.+64     	; 0x2532 <__ultoa_invert+0x84>
    24f2:	09 f4       	brne	.+2      	; 0x24f6 <__ultoa_invert+0x48>
    24f4:	68 94       	set
    24f6:	3f 91       	pop	r19
    24f8:	2a e0       	ldi	r18, 0x0A	; 10
    24fa:	26 9f       	mul	r18, r22
    24fc:	11 24       	eor	r1, r1
    24fe:	30 19       	sub	r19, r0
    2500:	30 5d       	subi	r19, 0xD0	; 208
    2502:	31 93       	st	Z+, r19
    2504:	de f6       	brtc	.-74     	; 0x24bc <__ultoa_invert+0xe>
    2506:	cf 01       	movw	r24, r30
    2508:	08 95       	ret
    250a:	46 2f       	mov	r20, r22
    250c:	47 70       	andi	r20, 0x07	; 7
    250e:	40 5d       	subi	r20, 0xD0	; 208
    2510:	41 93       	st	Z+, r20
    2512:	b3 e0       	ldi	r27, 0x03	; 3
    2514:	0f d0       	rcall	.+30     	; 0x2534 <__ultoa_invert+0x86>
    2516:	c9 f7       	brne	.-14     	; 0x250a <__ultoa_invert+0x5c>
    2518:	f6 cf       	rjmp	.-20     	; 0x2506 <__ultoa_invert+0x58>
    251a:	46 2f       	mov	r20, r22
    251c:	4f 70       	andi	r20, 0x0F	; 15
    251e:	40 5d       	subi	r20, 0xD0	; 208
    2520:	4a 33       	cpi	r20, 0x3A	; 58
    2522:	18 f0       	brcs	.+6      	; 0x252a <__ultoa_invert+0x7c>
    2524:	49 5d       	subi	r20, 0xD9	; 217
    2526:	31 fd       	sbrc	r19, 1
    2528:	40 52       	subi	r20, 0x20	; 32
    252a:	41 93       	st	Z+, r20
    252c:	02 d0       	rcall	.+4      	; 0x2532 <__ultoa_invert+0x84>
    252e:	a9 f7       	brne	.-22     	; 0x251a <__ultoa_invert+0x6c>
    2530:	ea cf       	rjmp	.-44     	; 0x2506 <__ultoa_invert+0x58>
    2532:	b4 e0       	ldi	r27, 0x04	; 4
    2534:	a6 95       	lsr	r26
    2536:	97 95       	ror	r25
    2538:	87 95       	ror	r24
    253a:	77 95       	ror	r23
    253c:	67 95       	ror	r22
    253e:	ba 95       	dec	r27
    2540:	c9 f7       	brne	.-14     	; 0x2534 <__ultoa_invert+0x86>
    2542:	00 97       	sbiw	r24, 0x00	; 0
    2544:	61 05       	cpc	r22, r1
    2546:	71 05       	cpc	r23, r1
    2548:	08 95       	ret
    254a:	9b 01       	movw	r18, r22
    254c:	ac 01       	movw	r20, r24
    254e:	0a 2e       	mov	r0, r26
    2550:	06 94       	lsr	r0
    2552:	57 95       	ror	r21
    2554:	47 95       	ror	r20
    2556:	37 95       	ror	r19
    2558:	27 95       	ror	r18
    255a:	ba 95       	dec	r27
    255c:	c9 f7       	brne	.-14     	; 0x2550 <__ultoa_invert+0xa2>
    255e:	62 0f       	add	r22, r18
    2560:	73 1f       	adc	r23, r19
    2562:	84 1f       	adc	r24, r20
    2564:	95 1f       	adc	r25, r21
    2566:	a0 1d       	adc	r26, r0
    2568:	08 95       	ret

0000256a <_exit>:
    256a:	f8 94       	cli

0000256c <__stop_program>:
    256c:	ff cf       	rjmp	.-2      	; 0x256c <__stop_program>
