
EthernetModule.elf:     file format elf32-avr

Sections:
Idx Name          Size      VMA       LMA       File off  Algn
  0 .data         000004b8  00800100  00001590  00001624  2**0
                  CONTENTS, ALLOC, LOAD, DATA
  1 .text         00001590  00000000  00000000  00000094  2**1
                  CONTENTS, ALLOC, LOAD, READONLY, CODE
  2 .bss          0000000e  008005b8  008005b8  00001adc  2**0
                  ALLOC
  3 .comment      0000005c  00000000  00000000  00001adc  2**0
                  CONTENTS, READONLY

Disassembly of section .text:

00000000 <__vectors>:
       0:	0c 94 3e 00 	jmp	0x7c	; 0x7c <__ctors_end>
       4:	0c 94 68 06 	jmp	0xcd0	; 0xcd0 <__vector_1>
       8:	0c 94 5b 00 	jmp	0xb6	; 0xb6 <__bad_interrupt>
       c:	0c 94 5b 00 	jmp	0xb6	; 0xb6 <__bad_interrupt>
      10:	0c 94 5b 00 	jmp	0xb6	; 0xb6 <__bad_interrupt>
      14:	0c 94 5b 00 	jmp	0xb6	; 0xb6 <__bad_interrupt>
      18:	0c 94 5b 00 	jmp	0xb6	; 0xb6 <__bad_interrupt>
      1c:	0c 94 5b 00 	jmp	0xb6	; 0xb6 <__bad_interrupt>
      20:	0c 94 5b 00 	jmp	0xb6	; 0xb6 <__bad_interrupt>
      24:	0c 94 5b 00 	jmp	0xb6	; 0xb6 <__bad_interrupt>
      28:	0c 94 5b 00 	jmp	0xb6	; 0xb6 <__bad_interrupt>
      2c:	0c 94 5b 00 	jmp	0xb6	; 0xb6 <__bad_interrupt>
      30:	0c 94 5b 00 	jmp	0xb6	; 0xb6 <__bad_interrupt>
      34:	0c 94 5b 00 	jmp	0xb6	; 0xb6 <__bad_interrupt>
      38:	0c 94 5b 00 	jmp	0xb6	; 0xb6 <__bad_interrupt>
      3c:	0c 94 5b 00 	jmp	0xb6	; 0xb6 <__bad_interrupt>
      40:	0c 94 5b 00 	jmp	0xb6	; 0xb6 <__bad_interrupt>
      44:	0c 94 5b 00 	jmp	0xb6	; 0xb6 <__bad_interrupt>
      48:	0c 94 5b 00 	jmp	0xb6	; 0xb6 <__bad_interrupt>
      4c:	0c 94 5b 00 	jmp	0xb6	; 0xb6 <__bad_interrupt>
      50:	0c 94 5b 00 	jmp	0xb6	; 0xb6 <__bad_interrupt>
      54:	0c 94 5b 00 	jmp	0xb6	; 0xb6 <__bad_interrupt>
      58:	0c 94 5b 00 	jmp	0xb6	; 0xb6 <__bad_interrupt>
      5c:	0c 94 5b 00 	jmp	0xb6	; 0xb6 <__bad_interrupt>
      60:	0c 94 5b 00 	jmp	0xb6	; 0xb6 <__bad_interrupt>
      64:	0c 94 5b 00 	jmp	0xb6	; 0xb6 <__bad_interrupt>
      68:	0c 94 5b 00 	jmp	0xb6	; 0xb6 <__bad_interrupt>
      6c:	0c 94 5b 00 	jmp	0xb6	; 0xb6 <__bad_interrupt>
      70:	0c 94 5b 00 	jmp	0xb6	; 0xb6 <__bad_interrupt>
      74:	0c 94 5b 00 	jmp	0xb6	; 0xb6 <__bad_interrupt>
      78:	0c 94 5b 00 	jmp	0xb6	; 0xb6 <__bad_interrupt>

0000007c <__ctors_end>:
      7c:	11 24       	eor	r1, r1
      7e:	1f be       	out	0x3f, r1	; 63
      80:	cf ef       	ldi	r28, 0xFF	; 255
      82:	d8 e0       	ldi	r29, 0x08	; 8
      84:	de bf       	out	0x3e, r29	; 62
      86:	cd bf       	out	0x3d, r28	; 61

00000088 <__do_copy_data>:
      88:	15 e0       	ldi	r17, 0x05	; 5
      8a:	a0 e0       	ldi	r26, 0x00	; 0
      8c:	b1 e0       	ldi	r27, 0x01	; 1
      8e:	e0 e9       	ldi	r30, 0x90	; 144
      90:	f5 e1       	ldi	r31, 0x15	; 21
      92:	02 c0       	rjmp	.+4      	; 0x98 <__do_copy_data+0x10>
      94:	05 90       	lpm	r0, Z+
      96:	0d 92       	st	X+, r0
      98:	a8 3b       	cpi	r26, 0xB8	; 184
      9a:	b1 07       	cpc	r27, r17
      9c:	d9 f7       	brne	.-10     	; 0x94 <__do_copy_data+0xc>

0000009e <__do_clear_bss>:
      9e:	25 e0       	ldi	r18, 0x05	; 5
      a0:	a8 eb       	ldi	r26, 0xB8	; 184
      a2:	b5 e0       	ldi	r27, 0x05	; 5
      a4:	01 c0       	rjmp	.+2      	; 0xa8 <.do_clear_bss_start>

000000a6 <.do_clear_bss_loop>:
      a6:	1d 92       	st	X+, r1

000000a8 <.do_clear_bss_start>:
      a8:	a6 3c       	cpi	r26, 0xC6	; 198
      aa:	b2 07       	cpc	r27, r18
      ac:	e1 f7       	brne	.-8      	; 0xa6 <.do_clear_bss_loop>
      ae:	0e 94 f8 06 	call	0xdf0	; 0xdf0 <main>
      b2:	0c 94 c6 0a 	jmp	0x158c	; 0x158c <_exit>

000000b6 <__bad_interrupt>:
      b6:	0c 94 00 00 	jmp	0	; 0x0 <__vectors>

000000ba <uart_putch>:
      ba:	cf 93       	push	r28
      bc:	c8 2f       	mov	r28, r24
      be:	8a 30       	cpi	r24, 0x0A	; 10
      c0:	19 f4       	brne	.+6      	; 0xc8 <uart_putch+0xe>
      c2:	8d e0       	ldi	r24, 0x0D	; 13
      c4:	0e 94 5d 00 	call	0xba	; 0xba <uart_putch>
      c8:	80 91 c0 00 	lds	r24, 0x00C0
      cc:	85 ff       	sbrs	r24, 5
      ce:	fc cf       	rjmp	.-8      	; 0xc8 <uart_putch+0xe>
      d0:	c0 93 c6 00 	sts	0x00C6, r28
      d4:	80 e0       	ldi	r24, 0x00	; 0
      d6:	90 e0       	ldi	r25, 0x00	; 0
      d8:	cf 91       	pop	r28
      da:	08 95       	ret

000000dc <uart_getch>:
      dc:	cf 93       	push	r28
      de:	bc 01       	movw	r22, r24
      e0:	80 91 c0 00 	lds	r24, 0x00C0
      e4:	87 ff       	sbrs	r24, 7
      e6:	fc cf       	rjmp	.-8      	; 0xe0 <uart_getch+0x4>
      e8:	c0 91 c6 00 	lds	r28, 0x00C6
      ec:	8c 2f       	mov	r24, r28
      ee:	0e 94 5d 00 	call	0xba	; 0xba <uart_putch>
      f2:	8c 2f       	mov	r24, r28
      f4:	90 e0       	ldi	r25, 0x00	; 0
      f6:	cf 91       	pop	r28
      f8:	08 95       	ret

000000fa <uart_init>:
      fa:	10 92 c5 00 	sts	0x00C5, r1
      fe:	89 e1       	ldi	r24, 0x19	; 25
     100:	80 93 c4 00 	sts	0x00C4, r24
     104:	88 e1       	ldi	r24, 0x18	; 24
     106:	80 93 c1 00 	sts	0x00C1, r24
     10a:	86 e0       	ldi	r24, 0x06	; 6
     10c:	80 93 c2 00 	sts	0x00C2, r24
     110:	08 95       	ret

00000112 <uart_flush>:
     112:	80 91 c0 00 	lds	r24, 0x00C0
     116:	87 ff       	sbrs	r24, 7
     118:	03 c0       	rjmp	.+6      	; 0x120 <uart_flush+0xe>
     11a:	80 91 c6 00 	lds	r24, 0x00C6
     11e:	f9 cf       	rjmp	.-14     	; 0x112 <uart_flush>
     120:	08 95       	ret

00000122 <ansi_cl>:
     122:	cf 93       	push	r28
     124:	df 93       	push	r29
     126:	c2 ec       	ldi	r28, 0xC2	; 194
     128:	d5 e0       	ldi	r29, 0x05	; 5
     12a:	68 81       	ld	r22, Y
     12c:	79 81       	ldd	r23, Y+1	; 0x01
     12e:	8b e1       	ldi	r24, 0x1B	; 27
     130:	90 e0       	ldi	r25, 0x00	; 0
     132:	0e 94 d6 07 	call	0xfac	; 0xfac <fputc>
     136:	68 81       	ld	r22, Y
     138:	79 81       	ldd	r23, Y+1	; 0x01
     13a:	8b e5       	ldi	r24, 0x5B	; 91
     13c:	90 e0       	ldi	r25, 0x00	; 0
     13e:	0e 94 d6 07 	call	0xfac	; 0xfac <fputc>
     142:	68 81       	ld	r22, Y
     144:	79 81       	ldd	r23, Y+1	; 0x01
     146:	88 e4       	ldi	r24, 0x48	; 72
     148:	90 e0       	ldi	r25, 0x00	; 0
     14a:	0e 94 d6 07 	call	0xfac	; 0xfac <fputc>
     14e:	68 81       	ld	r22, Y
     150:	79 81       	ldd	r23, Y+1	; 0x01
     152:	8b e1       	ldi	r24, 0x1B	; 27
     154:	90 e0       	ldi	r25, 0x00	; 0
     156:	0e 94 d6 07 	call	0xfac	; 0xfac <fputc>
     15a:	68 81       	ld	r22, Y
     15c:	79 81       	ldd	r23, Y+1	; 0x01
     15e:	8b e5       	ldi	r24, 0x5B	; 91
     160:	90 e0       	ldi	r25, 0x00	; 0
     162:	0e 94 d6 07 	call	0xfac	; 0xfac <fputc>
     166:	68 81       	ld	r22, Y
     168:	79 81       	ldd	r23, Y+1	; 0x01
     16a:	8a e4       	ldi	r24, 0x4A	; 74
     16c:	90 e0       	ldi	r25, 0x00	; 0
     16e:	df 91       	pop	r29
     170:	cf 91       	pop	r28
     172:	0c 94 d6 07 	jmp	0xfac	; 0xfac <fputc>

00000176 <ansi_me>:
     176:	cf 93       	push	r28
     178:	df 93       	push	r29
     17a:	c2 ec       	ldi	r28, 0xC2	; 194
     17c:	d5 e0       	ldi	r29, 0x05	; 5
     17e:	68 81       	ld	r22, Y
     180:	79 81       	ldd	r23, Y+1	; 0x01
     182:	8b e1       	ldi	r24, 0x1B	; 27
     184:	90 e0       	ldi	r25, 0x00	; 0
     186:	0e 94 d6 07 	call	0xfac	; 0xfac <fputc>
     18a:	68 81       	ld	r22, Y
     18c:	79 81       	ldd	r23, Y+1	; 0x01
     18e:	8b e5       	ldi	r24, 0x5B	; 91
     190:	90 e0       	ldi	r25, 0x00	; 0
     192:	0e 94 d6 07 	call	0xfac	; 0xfac <fputc>
     196:	68 81       	ld	r22, Y
     198:	79 81       	ldd	r23, Y+1	; 0x01
     19a:	80 e3       	ldi	r24, 0x30	; 48
     19c:	90 e0       	ldi	r25, 0x00	; 0
     19e:	0e 94 d6 07 	call	0xfac	; 0xfac <fputc>
     1a2:	68 81       	ld	r22, Y
     1a4:	79 81       	ldd	r23, Y+1	; 0x01
     1a6:	8d e6       	ldi	r24, 0x6D	; 109
     1a8:	90 e0       	ldi	r25, 0x00	; 0
     1aa:	df 91       	pop	r29
     1ac:	cf 91       	pop	r28
     1ae:	0c 94 d6 07 	jmp	0xfac	; 0xfac <fputc>

000001b2 <SPI_Write>:
     1b2:	10 98       	cbi	0x02, 0	; 2
     1b4:	20 ef       	ldi	r18, 0xF0	; 240
     1b6:	2e bd       	out	0x2e, r18	; 46
     1b8:	0d b4       	in	r0, 0x2d	; 45
     1ba:	07 fe       	sbrs	r0, 7
     1bc:	fd cf       	rjmp	.-6      	; 0x1b8 <SPI_Write+0x6>
     1be:	9e bd       	out	0x2e, r25	; 46
     1c0:	0d b4       	in	r0, 0x2d	; 45
     1c2:	07 fe       	sbrs	r0, 7
     1c4:	fd cf       	rjmp	.-6      	; 0x1c0 <SPI_Write+0xe>
     1c6:	8e bd       	out	0x2e, r24	; 46
     1c8:	0d b4       	in	r0, 0x2d	; 45
     1ca:	07 fe       	sbrs	r0, 7
     1cc:	fd cf       	rjmp	.-6      	; 0x1c8 <SPI_Write+0x16>
     1ce:	6e bd       	out	0x2e, r22	; 46
     1d0:	0d b4       	in	r0, 0x2d	; 45
     1d2:	07 fe       	sbrs	r0, 7
     1d4:	fd cf       	rjmp	.-6      	; 0x1d0 <SPI_Write+0x1e>
     1d6:	10 9a       	sbi	0x02, 0	; 2
     1d8:	08 95       	ret

000001da <SPI_Read>:
     1da:	10 98       	cbi	0x02, 0	; 2
     1dc:	2f e0       	ldi	r18, 0x0F	; 15
     1de:	2e bd       	out	0x2e, r18	; 46
     1e0:	0d b4       	in	r0, 0x2d	; 45
     1e2:	07 fe       	sbrs	r0, 7
     1e4:	fd cf       	rjmp	.-6      	; 0x1e0 <SPI_Read+0x6>
     1e6:	9e bd       	out	0x2e, r25	; 46
     1e8:	0d b4       	in	r0, 0x2d	; 45
     1ea:	07 fe       	sbrs	r0, 7
     1ec:	fd cf       	rjmp	.-6      	; 0x1e8 <SPI_Read+0xe>
     1ee:	8e bd       	out	0x2e, r24	; 46
     1f0:	0d b4       	in	r0, 0x2d	; 45
     1f2:	07 fe       	sbrs	r0, 7
     1f4:	fd cf       	rjmp	.-6      	; 0x1f0 <SPI_Read+0x16>
     1f6:	1e bc       	out	0x2e, r1	; 46
     1f8:	0d b4       	in	r0, 0x2d	; 45
     1fa:	07 fe       	sbrs	r0, 7
     1fc:	fd cf       	rjmp	.-6      	; 0x1f8 <SPI_Read+0x1e>
     1fe:	10 9a       	sbi	0x02, 0	; 2
     200:	8e b5       	in	r24, 0x2e	; 46
     202:	08 95       	ret

00000204 <Server_Connect>:
     204:	6f 92       	push	r6
     206:	7f 92       	push	r7
     208:	8f 92       	push	r8
     20a:	9f 92       	push	r9
     20c:	af 92       	push	r10
     20e:	bf 92       	push	r11
     210:	cf 92       	push	r12
     212:	df 92       	push	r13
     214:	ef 92       	push	r14
     216:	ff 92       	push	r15
     218:	0f 93       	push	r16
     21a:	1f 93       	push	r17
     21c:	cf 93       	push	r28
     21e:	df 93       	push	r29
     220:	78 2e       	mov	r7, r24
     222:	eb 01       	movw	r28, r22
     224:	5a 01       	movw	r10, r20
     226:	89 01       	movw	r16, r18
     228:	84 e1       	ldi	r24, 0x14	; 20
     22a:	e8 2e       	mov	r14, r24
     22c:	81 e0       	ldi	r24, 0x01	; 1
     22e:	f8 2e       	mov	r15, r24
     230:	9a e3       	ldi	r25, 0x3A	; 58
     232:	c9 2e       	mov	r12, r25
     234:	91 e0       	ldi	r25, 0x01	; 1
     236:	d9 2e       	mov	r13, r25
     238:	2b e7       	ldi	r18, 0x7B	; 123
     23a:	82 2e       	mov	r8, r18
     23c:	21 e0       	ldi	r18, 0x01	; 1
     23e:	92 2e       	mov	r9, r18
     240:	60 e1       	ldi	r22, 0x10	; 16
     242:	81 e0       	ldi	r24, 0x01	; 1
     244:	94 e0       	ldi	r25, 0x04	; 4
     246:	0e 94 d9 00 	call	0x1b2	; 0x1b2 <SPI_Write>
     24a:	67 2d       	mov	r22, r7
     24c:	80 e0       	ldi	r24, 0x00	; 0
     24e:	94 e0       	ldi	r25, 0x04	; 4
     250:	0e 94 d9 00 	call	0x1b2	; 0x1b2 <SPI_Write>
     254:	f8 01       	movw	r30, r16
     256:	81 81       	ldd	r24, Z+1	; 0x01
     258:	1f 92       	push	r1
     25a:	8f 93       	push	r24
     25c:	80 81       	ld	r24, Z
     25e:	1f 92       	push	r1
     260:	8f 93       	push	r24
     262:	ff 92       	push	r15
     264:	ef 92       	push	r14
     266:	0e 94 08 08 	call	0x1010	; 0x1010 <printf>
     26a:	f8 01       	movw	r30, r16
     26c:	60 81       	ld	r22, Z
     26e:	84 e0       	ldi	r24, 0x04	; 4
     270:	94 e0       	ldi	r25, 0x04	; 4
     272:	0e 94 d9 00 	call	0x1b2	; 0x1b2 <SPI_Write>
     276:	f8 01       	movw	r30, r16
     278:	61 81       	ldd	r22, Z+1	; 0x01
     27a:	85 e0       	ldi	r24, 0x05	; 5
     27c:	94 e0       	ldi	r25, 0x04	; 4
     27e:	0e 94 d9 00 	call	0x1b2	; 0x1b2 <SPI_Write>
     282:	85 e0       	ldi	r24, 0x05	; 5
     284:	94 e0       	ldi	r25, 0x04	; 4
     286:	0e 94 ed 00 	call	0x1da	; 0x1da <SPI_Read>
     28a:	68 2e       	mov	r6, r24
     28c:	84 e0       	ldi	r24, 0x04	; 4
     28e:	94 e0       	ldi	r25, 0x04	; 4
     290:	0e 94 ed 00 	call	0x1da	; 0x1da <SPI_Read>
     294:	1f 92       	push	r1
     296:	6f 92       	push	r6
     298:	1f 92       	push	r1
     29a:	8f 93       	push	r24
     29c:	df 92       	push	r13
     29e:	cf 92       	push	r12
     2a0:	0e 94 08 08 	call	0x1010	; 0x1010 <printf>
     2a4:	81 e6       	ldi	r24, 0x61	; 97
     2a6:	91 e0       	ldi	r25, 0x01	; 1
     2a8:	0e 94 1c 08 	call	0x1038	; 0x1038 <puts>
     2ac:	61 e0       	ldi	r22, 0x01	; 1
     2ae:	81 e0       	ldi	r24, 0x01	; 1
     2b0:	94 e0       	ldi	r25, 0x04	; 4
     2b2:	0e 94 d9 00 	call	0x1b2	; 0x1b2 <SPI_Write>
     2b6:	83 e0       	ldi	r24, 0x03	; 3
     2b8:	94 e0       	ldi	r25, 0x04	; 4
     2ba:	0e 94 ed 00 	call	0x1da	; 0x1da <SPI_Read>
     2be:	1f 92       	push	r1
     2c0:	8f 93       	push	r24
     2c2:	9f 92       	push	r9
     2c4:	8f 92       	push	r8
     2c6:	0e 94 08 08 	call	0x1010	; 0x1010 <printf>
     2ca:	83 e0       	ldi	r24, 0x03	; 3
     2cc:	94 e0       	ldi	r25, 0x04	; 4
     2ce:	0e 94 ed 00 	call	0x1da	; 0x1da <SPI_Read>
     2d2:	2d b7       	in	r18, 0x3d	; 61
     2d4:	3e b7       	in	r19, 0x3e	; 62
     2d6:	20 5f       	subi	r18, 0xF0	; 240
     2d8:	3f 4f       	sbci	r19, 0xFF	; 255
     2da:	0f b6       	in	r0, 0x3f	; 63
     2dc:	f8 94       	cli
     2de:	3e bf       	out	0x3e, r19	; 62
     2e0:	0f be       	out	0x3f, r0	; 63
     2e2:	2d bf       	out	0x3d, r18	; 61
     2e4:	83 31       	cpi	r24, 0x13	; 19
     2e6:	09 f0       	breq	.+2      	; 0x2ea <Server_Connect+0xe6>
     2e8:	8e c0       	rjmp	.+284    	; 0x406 <Server_Connect+0x202>
     2ea:	8b 81       	ldd	r24, Y+3	; 0x03
     2ec:	1f 92       	push	r1
     2ee:	8f 93       	push	r24
     2f0:	8a 81       	ldd	r24, Y+2	; 0x02
     2f2:	1f 92       	push	r1
     2f4:	8f 93       	push	r24
     2f6:	89 81       	ldd	r24, Y+1	; 0x01
     2f8:	1f 92       	push	r1
     2fa:	8f 93       	push	r24
     2fc:	88 81       	ld	r24, Y
     2fe:	1f 92       	push	r1
     300:	8f 93       	push	r24
     302:	8e e8       	ldi	r24, 0x8E	; 142
     304:	91 e0       	ldi	r25, 0x01	; 1
     306:	9f 93       	push	r25
     308:	8f 93       	push	r24
     30a:	0e 94 08 08 	call	0x1010	; 0x1010 <printf>
     30e:	68 81       	ld	r22, Y
     310:	8c e0       	ldi	r24, 0x0C	; 12
     312:	94 e0       	ldi	r25, 0x04	; 4
     314:	0e 94 d9 00 	call	0x1b2	; 0x1b2 <SPI_Write>
     318:	69 81       	ldd	r22, Y+1	; 0x01
     31a:	8d e0       	ldi	r24, 0x0D	; 13
     31c:	94 e0       	ldi	r25, 0x04	; 4
     31e:	0e 94 d9 00 	call	0x1b2	; 0x1b2 <SPI_Write>
     322:	6a 81       	ldd	r22, Y+2	; 0x02
     324:	8e e0       	ldi	r24, 0x0E	; 14
     326:	94 e0       	ldi	r25, 0x04	; 4
     328:	0e 94 d9 00 	call	0x1b2	; 0x1b2 <SPI_Write>
     32c:	6b 81       	ldd	r22, Y+3	; 0x03
     32e:	8f e0       	ldi	r24, 0x0F	; 15
     330:	94 e0       	ldi	r25, 0x04	; 4
     332:	0e 94 d9 00 	call	0x1b2	; 0x1b2 <SPI_Write>
     336:	8f e0       	ldi	r24, 0x0F	; 15
     338:	94 e0       	ldi	r25, 0x04	; 4
     33a:	0e 94 ed 00 	call	0x1da	; 0x1da <SPI_Read>
     33e:	18 2f       	mov	r17, r24
     340:	8e e0       	ldi	r24, 0x0E	; 14
     342:	94 e0       	ldi	r25, 0x04	; 4
     344:	0e 94 ed 00 	call	0x1da	; 0x1da <SPI_Read>
     348:	d8 2f       	mov	r29, r24
     34a:	8d e0       	ldi	r24, 0x0D	; 13
     34c:	94 e0       	ldi	r25, 0x04	; 4
     34e:	0e 94 ed 00 	call	0x1da	; 0x1da <SPI_Read>
     352:	c8 2f       	mov	r28, r24
     354:	8c e0       	ldi	r24, 0x0C	; 12
     356:	94 e0       	ldi	r25, 0x04	; 4
     358:	0e 94 ed 00 	call	0x1da	; 0x1da <SPI_Read>
     35c:	1f 92       	push	r1
     35e:	1f 93       	push	r17
     360:	1f 92       	push	r1
     362:	df 93       	push	r29
     364:	1f 92       	push	r1
     366:	cf 93       	push	r28
     368:	1f 92       	push	r1
     36a:	8f 93       	push	r24
     36c:	85 eb       	ldi	r24, 0xB5	; 181
     36e:	91 e0       	ldi	r25, 0x01	; 1
     370:	9f 93       	push	r25
     372:	8f 93       	push	r24
     374:	0e 94 08 08 	call	0x1010	; 0x1010 <printf>
     378:	83 e0       	ldi	r24, 0x03	; 3
     37a:	94 e0       	ldi	r25, 0x04	; 4
     37c:	0e 94 ed 00 	call	0x1da	; 0x1da <SPI_Read>
     380:	1f 92       	push	r1
     382:	8f 93       	push	r24
     384:	cb e7       	ldi	r28, 0x7B	; 123
     386:	d1 e0       	ldi	r29, 0x01	; 1
     388:	df 93       	push	r29
     38a:	cf 93       	push	r28
     38c:	0e 94 08 08 	call	0x1010	; 0x1010 <printf>
     390:	84 ed       	ldi	r24, 0xD4	; 212
     392:	91 e0       	ldi	r25, 0x01	; 1
     394:	0e 94 1c 08 	call	0x1038	; 0x1038 <puts>
     398:	f5 01       	movw	r30, r10
     39a:	60 81       	ld	r22, Z
     39c:	80 e1       	ldi	r24, 0x10	; 16
     39e:	94 e0       	ldi	r25, 0x04	; 4
     3a0:	0e 94 d9 00 	call	0x1b2	; 0x1b2 <SPI_Write>
     3a4:	f5 01       	movw	r30, r10
     3a6:	61 81       	ldd	r22, Z+1	; 0x01
     3a8:	81 e1       	ldi	r24, 0x11	; 17
     3aa:	94 e0       	ldi	r25, 0x04	; 4
     3ac:	0e 94 d9 00 	call	0x1b2	; 0x1b2 <SPI_Write>
     3b0:	81 e1       	ldi	r24, 0x11	; 17
     3b2:	94 e0       	ldi	r25, 0x04	; 4
     3b4:	0e 94 ed 00 	call	0x1da	; 0x1da <SPI_Read>
     3b8:	18 2f       	mov	r17, r24
     3ba:	80 e1       	ldi	r24, 0x10	; 16
     3bc:	94 e0       	ldi	r25, 0x04	; 4
     3be:	0e 94 ed 00 	call	0x1da	; 0x1da <SPI_Read>
     3c2:	1f 92       	push	r1
     3c4:	1f 93       	push	r17
     3c6:	1f 92       	push	r1
     3c8:	8f 93       	push	r24
     3ca:	88 ee       	ldi	r24, 0xE8	; 232
     3cc:	91 e0       	ldi	r25, 0x01	; 1
     3ce:	9f 93       	push	r25
     3d0:	8f 93       	push	r24
     3d2:	0e 94 08 08 	call	0x1010	; 0x1010 <printf>
     3d6:	83 e0       	ldi	r24, 0x03	; 3
     3d8:	94 e0       	ldi	r25, 0x04	; 4
     3da:	0e 94 ed 00 	call	0x1da	; 0x1da <SPI_Read>
     3de:	1f 92       	push	r1
     3e0:	8f 93       	push	r24
     3e2:	df 93       	push	r29
     3e4:	cf 93       	push	r28
     3e6:	0e 94 08 08 	call	0x1010	; 0x1010 <printf>
     3ea:	8d b7       	in	r24, 0x3d	; 61
     3ec:	9e b7       	in	r25, 0x3e	; 62
     3ee:	82 96       	adiw	r24, 0x22	; 34
     3f0:	0f b6       	in	r0, 0x3f	; 63
     3f2:	f8 94       	cli
     3f4:	9e bf       	out	0x3e, r25	; 62
     3f6:	0f be       	out	0x3f, r0	; 63
     3f8:	8d bf       	out	0x3d, r24	; 61
     3fa:	64 e0       	ldi	r22, 0x04	; 4
     3fc:	81 e0       	ldi	r24, 0x01	; 1
     3fe:	94 e0       	ldi	r25, 0x04	; 4
     400:	0e 94 d9 00 	call	0x1b2	; 0x1b2 <SPI_Write>
     404:	08 c0       	rjmp	.+16     	; 0x416 <Server_Connect+0x212>
     406:	83 e0       	ldi	r24, 0x03	; 3
     408:	94 e0       	ldi	r25, 0x04	; 4
     40a:	0e 94 ed 00 	call	0x1da	; 0x1da <SPI_Read>
     40e:	82 33       	cpi	r24, 0x32	; 50
     410:	09 f0       	breq	.+2      	; 0x414 <Server_Connect+0x210>
     412:	16 cf       	rjmp	.-468    	; 0x240 <Server_Connect+0x3c>
     414:	6a cf       	rjmp	.-300    	; 0x2ea <Server_Connect+0xe6>
     416:	82 e0       	ldi	r24, 0x02	; 2
     418:	94 e0       	ldi	r25, 0x04	; 4
     41a:	0e 94 ed 00 	call	0x1da	; 0x1da <SPI_Read>
     41e:	8f 71       	andi	r24, 0x1F	; 31
     420:	d1 f7       	brne	.-12     	; 0x416 <Server_Connect+0x212>
     422:	c8 ee       	ldi	r28, 0xE8	; 232
     424:	d3 e0       	ldi	r29, 0x03	; 3
     426:	83 e0       	ldi	r24, 0x03	; 3
     428:	94 e0       	ldi	r25, 0x04	; 4
     42a:	0e 94 ed 00 	call	0x1da	; 0x1da <SPI_Read>
     42e:	85 31       	cpi	r24, 0x15	; 21
     430:	71 f4       	brne	.+28     	; 0x44e <Server_Connect+0x24a>
     432:	ed ee       	ldi	r30, 0xED	; 237
     434:	f2 e0       	ldi	r31, 0x02	; 2
     436:	31 97       	sbiw	r30, 0x01	; 1
     438:	f1 f7       	brne	.-4      	; 0x436 <Server_Connect+0x232>
     43a:	00 c0       	rjmp	.+0      	; 0x43c <Server_Connect+0x238>
     43c:	00 00       	nop
     43e:	21 97       	sbiw	r28, 0x01	; 1
     440:	20 97       	sbiw	r28, 0x00	; 0
     442:	89 f7       	brne	.-30     	; 0x426 <Server_Connect+0x222>
     444:	81 e0       	ldi	r24, 0x01	; 1
     446:	92 e0       	ldi	r25, 0x02	; 2
     448:	0e 94 1c 08 	call	0x1038	; 0x1038 <puts>
     44c:	ea cf       	rjmp	.-44     	; 0x422 <Server_Connect+0x21e>
     44e:	83 e0       	ldi	r24, 0x03	; 3
     450:	94 e0       	ldi	r25, 0x04	; 4
     452:	0e 94 ed 00 	call	0x1da	; 0x1da <SPI_Read>
     456:	1f 92       	push	r1
     458:	8f 93       	push	r24
     45a:	cb e7       	ldi	r28, 0x7B	; 123
     45c:	d1 e0       	ldi	r29, 0x01	; 1
     45e:	df 93       	push	r29
     460:	cf 93       	push	r28
     462:	0e 94 08 08 	call	0x1010	; 0x1010 <printf>
     466:	83 e0       	ldi	r24, 0x03	; 3
     468:	94 e0       	ldi	r25, 0x04	; 4
     46a:	0e 94 ed 00 	call	0x1da	; 0x1da <SPI_Read>
     46e:	0f 90       	pop	r0
     470:	0f 90       	pop	r0
     472:	0f 90       	pop	r0
     474:	0f 90       	pop	r0
     476:	87 31       	cpi	r24, 0x17	; 23
     478:	a9 f4       	brne	.+42     	; 0x4a4 <Server_Connect+0x2a0>
     47a:	83 e0       	ldi	r24, 0x03	; 3
     47c:	94 e0       	ldi	r25, 0x04	; 4
     47e:	0e 94 ed 00 	call	0x1da	; 0x1da <SPI_Read>
     482:	1f 92       	push	r1
     484:	8f 93       	push	r24
     486:	df 93       	push	r29
     488:	cf 93       	push	r28
     48a:	0e 94 08 08 	call	0x1010	; 0x1010 <printf>
     48e:	83 e2       	ldi	r24, 0x23	; 35
     490:	92 e0       	ldi	r25, 0x02	; 2
     492:	0e 94 1c 08 	call	0x1038	; 0x1038 <puts>
     496:	0f 90       	pop	r0
     498:	0f 90       	pop	r0
     49a:	0f 90       	pop	r0
     49c:	0f 90       	pop	r0
     49e:	81 e0       	ldi	r24, 0x01	; 1
     4a0:	90 e0       	ldi	r25, 0x00	; 0
     4a2:	14 c0       	rjmp	.+40     	; 0x4cc <Server_Connect+0x2c8>
     4a4:	83 e0       	ldi	r24, 0x03	; 3
     4a6:	94 e0       	ldi	r25, 0x04	; 4
     4a8:	0e 94 ed 00 	call	0x1da	; 0x1da <SPI_Read>
     4ac:	1f 92       	push	r1
     4ae:	8f 93       	push	r24
     4b0:	df 93       	push	r29
     4b2:	cf 93       	push	r28
     4b4:	0e 94 08 08 	call	0x1010	; 0x1010 <printf>
     4b8:	8a e3       	ldi	r24, 0x3A	; 58
     4ba:	92 e0       	ldi	r25, 0x02	; 2
     4bc:	0e 94 1c 08 	call	0x1038	; 0x1038 <puts>
     4c0:	0f 90       	pop	r0
     4c2:	0f 90       	pop	r0
     4c4:	0f 90       	pop	r0
     4c6:	0f 90       	pop	r0
     4c8:	80 e0       	ldi	r24, 0x00	; 0
     4ca:	90 e0       	ldi	r25, 0x00	; 0
     4cc:	df 91       	pop	r29
     4ce:	cf 91       	pop	r28
     4d0:	1f 91       	pop	r17
     4d2:	0f 91       	pop	r16
     4d4:	ff 90       	pop	r15
     4d6:	ef 90       	pop	r14
     4d8:	df 90       	pop	r13
     4da:	cf 90       	pop	r12
     4dc:	bf 90       	pop	r11
     4de:	af 90       	pop	r10
     4e0:	9f 90       	pop	r9
     4e2:	8f 90       	pop	r8
     4e4:	7f 90       	pop	r7
     4e6:	6f 90       	pop	r6
     4e8:	08 95       	ret

000004ea <Memory_Init>:
     4ea:	65 e5       	ldi	r22, 0x55	; 85
     4ec:	8a e1       	ldi	r24, 0x1A	; 26
     4ee:	90 e0       	ldi	r25, 0x00	; 0
     4f0:	0e 94 d9 00 	call	0x1b2	; 0x1b2 <SPI_Write>
     4f4:	65 e5       	ldi	r22, 0x55	; 85
     4f6:	8b e1       	ldi	r24, 0x1B	; 27
     4f8:	90 e0       	ldi	r25, 0x00	; 0
     4fa:	0e 94 d9 00 	call	0x1b2	; 0x1b2 <SPI_Write>
     4fe:	8f ef       	ldi	r24, 0xFF	; 255
     500:	97 e0       	ldi	r25, 0x07	; 7
     502:	90 93 b9 05 	sts	0x05B9, r25
     506:	80 93 b8 05 	sts	0x05B8, r24
     50a:	20 e0       	ldi	r18, 0x00	; 0
     50c:	30 e4       	ldi	r19, 0x40	; 64
     50e:	30 93 bb 05 	sts	0x05BB, r19
     512:	20 93 ba 05 	sts	0x05BA, r18
     516:	90 93 bf 05 	sts	0x05BF, r25
     51a:	80 93 be 05 	sts	0x05BE, r24
     51e:	80 e0       	ldi	r24, 0x00	; 0
     520:	90 e6       	ldi	r25, 0x60	; 96
     522:	90 93 bd 05 	sts	0x05BD, r25
     526:	80 93 bc 05 	sts	0x05BC, r24
     52a:	08 95       	ret

0000052c <Ethernet_Init>:
     52c:	bf 92       	push	r11
     52e:	cf 92       	push	r12
     530:	df 92       	push	r13
     532:	ef 92       	push	r14
     534:	ff 92       	push	r15
     536:	0f 93       	push	r16
     538:	1f 93       	push	r17
     53a:	cf 93       	push	r28
     53c:	df 93       	push	r29
     53e:	ec 01       	movw	r28, r24
     540:	8b 01       	movw	r16, r22
     542:	6a 01       	movw	r12, r20
     544:	79 01       	movw	r14, r18
     546:	08 9a       	sbi	0x01, 0	; 1
     548:	80 eb       	ldi	r24, 0xB0	; 176
     54a:	84 b9       	out	0x04, r24	; 4
     54c:	10 9a       	sbi	0x02, 0	; 2
     54e:	80 e5       	ldi	r24, 0x50	; 80
     550:	8c bd       	out	0x2c, r24	; 44
     552:	89 e5       	ldi	r24, 0x59	; 89
     554:	92 e0       	ldi	r25, 0x02	; 2
     556:	0e 94 1c 08 	call	0x1038	; 0x1038 <puts>
     55a:	8b e6       	ldi	r24, 0x6B	; 107
     55c:	92 e0       	ldi	r25, 0x02	; 2
     55e:	0e 94 1c 08 	call	0x1038	; 0x1038 <puts>
     562:	60 e8       	ldi	r22, 0x80	; 128
     564:	80 e0       	ldi	r24, 0x00	; 0
     566:	90 e0       	ldi	r25, 0x00	; 0
     568:	0e 94 d9 00 	call	0x1b2	; 0x1b2 <SPI_Write>
     56c:	89 ef       	ldi	r24, 0xF9	; 249
     56e:	90 e0       	ldi	r25, 0x00	; 0
     570:	01 97       	sbiw	r24, 0x01	; 1
     572:	f1 f7       	brne	.-4      	; 0x570 <Ethernet_Init+0x44>
     574:	00 c0       	rjmp	.+0      	; 0x576 <Ethernet_Init+0x4a>
     576:	00 00       	nop
     578:	80 e0       	ldi	r24, 0x00	; 0
     57a:	90 e0       	ldi	r25, 0x00	; 0
     57c:	0e 94 ed 00 	call	0x1da	; 0x1da <SPI_Read>
     580:	1f 92       	push	r1
     582:	8f 93       	push	r24
     584:	84 e8       	ldi	r24, 0x84	; 132
     586:	92 e0       	ldi	r25, 0x02	; 2
     588:	9f 93       	push	r25
     58a:	8f 93       	push	r24
     58c:	0e 94 08 08 	call	0x1010	; 0x1010 <printf>
     590:	f7 01       	movw	r30, r14
     592:	83 81       	ldd	r24, Z+3	; 0x03
     594:	1f 92       	push	r1
     596:	8f 93       	push	r24
     598:	82 81       	ldd	r24, Z+2	; 0x02
     59a:	1f 92       	push	r1
     59c:	8f 93       	push	r24
     59e:	81 81       	ldd	r24, Z+1	; 0x01
     5a0:	1f 92       	push	r1
     5a2:	8f 93       	push	r24
     5a4:	80 81       	ld	r24, Z
     5a6:	1f 92       	push	r1
     5a8:	8f 93       	push	r24
     5aa:	85 e9       	ldi	r24, 0x95	; 149
     5ac:	92 e0       	ldi	r25, 0x02	; 2
     5ae:	9f 93       	push	r25
     5b0:	8f 93       	push	r24
     5b2:	0e 94 08 08 	call	0x1010	; 0x1010 <printf>
     5b6:	f7 01       	movw	r30, r14
     5b8:	60 81       	ld	r22, Z
     5ba:	81 e0       	ldi	r24, 0x01	; 1
     5bc:	90 e0       	ldi	r25, 0x00	; 0
     5be:	0e 94 d9 00 	call	0x1b2	; 0x1b2 <SPI_Write>
     5c2:	f7 01       	movw	r30, r14
     5c4:	61 81       	ldd	r22, Z+1	; 0x01
     5c6:	82 e0       	ldi	r24, 0x02	; 2
     5c8:	90 e0       	ldi	r25, 0x00	; 0
     5ca:	0e 94 d9 00 	call	0x1b2	; 0x1b2 <SPI_Write>
     5ce:	f7 01       	movw	r30, r14
     5d0:	62 81       	ldd	r22, Z+2	; 0x02
     5d2:	83 e0       	ldi	r24, 0x03	; 3
     5d4:	90 e0       	ldi	r25, 0x00	; 0
     5d6:	0e 94 d9 00 	call	0x1b2	; 0x1b2 <SPI_Write>
     5da:	f7 01       	movw	r30, r14
     5dc:	63 81       	ldd	r22, Z+3	; 0x03
     5de:	84 e0       	ldi	r24, 0x04	; 4
     5e0:	90 e0       	ldi	r25, 0x00	; 0
     5e2:	0e 94 d9 00 	call	0x1b2	; 0x1b2 <SPI_Write>
     5e6:	89 ef       	ldi	r24, 0xF9	; 249
     5e8:	90 e0       	ldi	r25, 0x00	; 0
     5ea:	01 97       	sbiw	r24, 0x01	; 1
     5ec:	f1 f7       	brne	.-4      	; 0x5ea <Ethernet_Init+0xbe>
     5ee:	00 c0       	rjmp	.+0      	; 0x5f0 <Ethernet_Init+0xc4>
     5f0:	00 00       	nop
     5f2:	84 e0       	ldi	r24, 0x04	; 4
     5f4:	90 e0       	ldi	r25, 0x00	; 0
     5f6:	0e 94 ed 00 	call	0x1da	; 0x1da <SPI_Read>
     5fa:	b8 2e       	mov	r11, r24
     5fc:	83 e0       	ldi	r24, 0x03	; 3
     5fe:	90 e0       	ldi	r25, 0x00	; 0
     600:	0e 94 ed 00 	call	0x1da	; 0x1da <SPI_Read>
     604:	e8 2e       	mov	r14, r24
     606:	82 e0       	ldi	r24, 0x02	; 2
     608:	90 e0       	ldi	r25, 0x00	; 0
     60a:	0e 94 ed 00 	call	0x1da	; 0x1da <SPI_Read>
     60e:	f8 2e       	mov	r15, r24
     610:	81 e0       	ldi	r24, 0x01	; 1
     612:	90 e0       	ldi	r25, 0x00	; 0
     614:	0e 94 ed 00 	call	0x1da	; 0x1da <SPI_Read>
     618:	1f 92       	push	r1
     61a:	bf 92       	push	r11
     61c:	1f 92       	push	r1
     61e:	ef 92       	push	r14
     620:	1f 92       	push	r1
     622:	ff 92       	push	r15
     624:	1f 92       	push	r1
     626:	8f 93       	push	r24
     628:	8a eb       	ldi	r24, 0xBA	; 186
     62a:	92 e0       	ldi	r25, 0x02	; 2
     62c:	9f 93       	push	r25
     62e:	8f 93       	push	r24
     630:	0e 94 08 08 	call	0x1010	; 0x1010 <printf>
     634:	8d 81       	ldd	r24, Y+5	; 0x05
     636:	1f 92       	push	r1
     638:	8f 93       	push	r24
     63a:	8c 81       	ldd	r24, Y+4	; 0x04
     63c:	1f 92       	push	r1
     63e:	8f 93       	push	r24
     640:	8b 81       	ldd	r24, Y+3	; 0x03
     642:	1f 92       	push	r1
     644:	8f 93       	push	r24
     646:	8a 81       	ldd	r24, Y+2	; 0x02
     648:	1f 92       	push	r1
     64a:	8f 93       	push	r24
     64c:	89 81       	ldd	r24, Y+1	; 0x01
     64e:	1f 92       	push	r1
     650:	8f 93       	push	r24
     652:	88 81       	ld	r24, Y
     654:	1f 92       	push	r1
     656:	8f 93       	push	r24
     658:	85 ed       	ldi	r24, 0xD5	; 213
     65a:	92 e0       	ldi	r25, 0x02	; 2
     65c:	9f 93       	push	r25
     65e:	8f 93       	push	r24
     660:	0e 94 08 08 	call	0x1010	; 0x1010 <printf>
     664:	ed b7       	in	r30, 0x3d	; 61
     666:	fe b7       	in	r31, 0x3e	; 62
     668:	b6 96       	adiw	r30, 0x26	; 38
     66a:	0f b6       	in	r0, 0x3f	; 63
     66c:	f8 94       	cli
     66e:	fe bf       	out	0x3e, r31	; 62
     670:	0f be       	out	0x3f, r0	; 63
     672:	ed bf       	out	0x3d, r30	; 61
     674:	68 81       	ld	r22, Y
     676:	89 e0       	ldi	r24, 0x09	; 9
     678:	90 e0       	ldi	r25, 0x00	; 0
     67a:	0e 94 d9 00 	call	0x1b2	; 0x1b2 <SPI_Write>
     67e:	69 81       	ldd	r22, Y+1	; 0x01
     680:	8a e0       	ldi	r24, 0x0A	; 10
     682:	90 e0       	ldi	r25, 0x00	; 0
     684:	0e 94 d9 00 	call	0x1b2	; 0x1b2 <SPI_Write>
     688:	6a 81       	ldd	r22, Y+2	; 0x02
     68a:	8b e0       	ldi	r24, 0x0B	; 11
     68c:	90 e0       	ldi	r25, 0x00	; 0
     68e:	0e 94 d9 00 	call	0x1b2	; 0x1b2 <SPI_Write>
     692:	6b 81       	ldd	r22, Y+3	; 0x03
     694:	8c e0       	ldi	r24, 0x0C	; 12
     696:	90 e0       	ldi	r25, 0x00	; 0
     698:	0e 94 d9 00 	call	0x1b2	; 0x1b2 <SPI_Write>
     69c:	6c 81       	ldd	r22, Y+4	; 0x04
     69e:	8d e0       	ldi	r24, 0x0D	; 13
     6a0:	90 e0       	ldi	r25, 0x00	; 0
     6a2:	0e 94 d9 00 	call	0x1b2	; 0x1b2 <SPI_Write>
     6a6:	6d 81       	ldd	r22, Y+5	; 0x05
     6a8:	8e e0       	ldi	r24, 0x0E	; 14
     6aa:	90 e0       	ldi	r25, 0x00	; 0
     6ac:	0e 94 d9 00 	call	0x1b2	; 0x1b2 <SPI_Write>
     6b0:	89 ef       	ldi	r24, 0xF9	; 249
     6b2:	90 e0       	ldi	r25, 0x00	; 0
     6b4:	01 97       	sbiw	r24, 0x01	; 1
     6b6:	f1 f7       	brne	.-4      	; 0x6b4 <Ethernet_Init+0x188>
     6b8:	00 c0       	rjmp	.+0      	; 0x6ba <Ethernet_Init+0x18e>
     6ba:	00 00       	nop
     6bc:	8e e0       	ldi	r24, 0x0E	; 14
     6be:	90 e0       	ldi	r25, 0x00	; 0
     6c0:	0e 94 ed 00 	call	0x1da	; 0x1da <SPI_Read>
     6c4:	b8 2e       	mov	r11, r24
     6c6:	8d e0       	ldi	r24, 0x0D	; 13
     6c8:	90 e0       	ldi	r25, 0x00	; 0
     6ca:	0e 94 ed 00 	call	0x1da	; 0x1da <SPI_Read>
     6ce:	e8 2e       	mov	r14, r24
     6d0:	8c e0       	ldi	r24, 0x0C	; 12
     6d2:	90 e0       	ldi	r25, 0x00	; 0
     6d4:	0e 94 ed 00 	call	0x1da	; 0x1da <SPI_Read>
     6d8:	f8 2e       	mov	r15, r24
     6da:	8b e0       	ldi	r24, 0x0B	; 11
     6dc:	90 e0       	ldi	r25, 0x00	; 0
     6de:	0e 94 ed 00 	call	0x1da	; 0x1da <SPI_Read>
     6e2:	d8 2f       	mov	r29, r24
     6e4:	8a e0       	ldi	r24, 0x0A	; 10
     6e6:	90 e0       	ldi	r25, 0x00	; 0
     6e8:	0e 94 ed 00 	call	0x1da	; 0x1da <SPI_Read>
     6ec:	c8 2f       	mov	r28, r24
     6ee:	89 e0       	ldi	r24, 0x09	; 9
     6f0:	90 e0       	ldi	r25, 0x00	; 0
     6f2:	0e 94 ed 00 	call	0x1da	; 0x1da <SPI_Read>
     6f6:	1f 92       	push	r1
     6f8:	bf 92       	push	r11
     6fa:	1f 92       	push	r1
     6fc:	ef 92       	push	r14
     6fe:	1f 92       	push	r1
     700:	ff 92       	push	r15
     702:	1f 92       	push	r1
     704:	df 93       	push	r29
     706:	1f 92       	push	r1
     708:	cf 93       	push	r28
     70a:	1f 92       	push	r1
     70c:	8f 93       	push	r24
     70e:	8b e0       	ldi	r24, 0x0B	; 11
     710:	93 e0       	ldi	r25, 0x03	; 3
     712:	9f 93       	push	r25
     714:	8f 93       	push	r24
     716:	0e 94 08 08 	call	0x1010	; 0x1010 <printf>
     71a:	f6 01       	movw	r30, r12
     71c:	83 81       	ldd	r24, Z+3	; 0x03
     71e:	1f 92       	push	r1
     720:	8f 93       	push	r24
     722:	82 81       	ldd	r24, Z+2	; 0x02
     724:	1f 92       	push	r1
     726:	8f 93       	push	r24
     728:	81 81       	ldd	r24, Z+1	; 0x01
     72a:	1f 92       	push	r1
     72c:	8f 93       	push	r24
     72e:	80 81       	ld	r24, Z
     730:	1f 92       	push	r1
     732:	8f 93       	push	r24
     734:	88 e3       	ldi	r24, 0x38	; 56
     736:	93 e0       	ldi	r25, 0x03	; 3
     738:	9f 93       	push	r25
     73a:	8f 93       	push	r24
     73c:	0e 94 08 08 	call	0x1010	; 0x1010 <printf>
     740:	f6 01       	movw	r30, r12
     742:	60 81       	ld	r22, Z
     744:	85 e0       	ldi	r24, 0x05	; 5
     746:	90 e0       	ldi	r25, 0x00	; 0
     748:	0e 94 d9 00 	call	0x1b2	; 0x1b2 <SPI_Write>
     74c:	f6 01       	movw	r30, r12
     74e:	61 81       	ldd	r22, Z+1	; 0x01
     750:	86 e0       	ldi	r24, 0x06	; 6
     752:	90 e0       	ldi	r25, 0x00	; 0
     754:	0e 94 d9 00 	call	0x1b2	; 0x1b2 <SPI_Write>
     758:	f6 01       	movw	r30, r12
     75a:	62 81       	ldd	r22, Z+2	; 0x02
     75c:	87 e0       	ldi	r24, 0x07	; 7
     75e:	90 e0       	ldi	r25, 0x00	; 0
     760:	0e 94 d9 00 	call	0x1b2	; 0x1b2 <SPI_Write>
     764:	f6 01       	movw	r30, r12
     766:	63 81       	ldd	r22, Z+3	; 0x03
     768:	88 e0       	ldi	r24, 0x08	; 8
     76a:	90 e0       	ldi	r25, 0x00	; 0
     76c:	0e 94 d9 00 	call	0x1b2	; 0x1b2 <SPI_Write>
     770:	89 ef       	ldi	r24, 0xF9	; 249
     772:	90 e0       	ldi	r25, 0x00	; 0
     774:	01 97       	sbiw	r24, 0x01	; 1
     776:	f1 f7       	brne	.-4      	; 0x774 <Ethernet_Init+0x248>
     778:	00 c0       	rjmp	.+0      	; 0x77a <Ethernet_Init+0x24e>
     77a:	00 00       	nop
     77c:	88 e0       	ldi	r24, 0x08	; 8
     77e:	90 e0       	ldi	r25, 0x00	; 0
     780:	0e 94 ed 00 	call	0x1da	; 0x1da <SPI_Read>
     784:	f8 2e       	mov	r15, r24
     786:	87 e0       	ldi	r24, 0x07	; 7
     788:	90 e0       	ldi	r25, 0x00	; 0
     78a:	0e 94 ed 00 	call	0x1da	; 0x1da <SPI_Read>
     78e:	d8 2f       	mov	r29, r24
     790:	86 e0       	ldi	r24, 0x06	; 6
     792:	90 e0       	ldi	r25, 0x00	; 0
     794:	0e 94 ed 00 	call	0x1da	; 0x1da <SPI_Read>
     798:	c8 2f       	mov	r28, r24
     79a:	85 e0       	ldi	r24, 0x05	; 5
     79c:	90 e0       	ldi	r25, 0x00	; 0
     79e:	0e 94 ed 00 	call	0x1da	; 0x1da <SPI_Read>
     7a2:	1f 92       	push	r1
     7a4:	ff 92       	push	r15
     7a6:	1f 92       	push	r1
     7a8:	df 93       	push	r29
     7aa:	1f 92       	push	r1
     7ac:	cf 93       	push	r28
     7ae:	1f 92       	push	r1
     7b0:	8f 93       	push	r24
     7b2:	8e e5       	ldi	r24, 0x5E	; 94
     7b4:	93 e0       	ldi	r25, 0x03	; 3
     7b6:	9f 93       	push	r25
     7b8:	8f 93       	push	r24
     7ba:	0e 94 08 08 	call	0x1010	; 0x1010 <printf>
     7be:	ed b7       	in	r30, 0x3d	; 61
     7c0:	fe b7       	in	r31, 0x3e	; 62
     7c2:	b2 96       	adiw	r30, 0x22	; 34
     7c4:	0f b6       	in	r0, 0x3f	; 63
     7c6:	f8 94       	cli
     7c8:	fe bf       	out	0x3e, r31	; 62
     7ca:	0f be       	out	0x3f, r0	; 63
     7cc:	ed bf       	out	0x3d, r30	; 61
     7ce:	f8 01       	movw	r30, r16
     7d0:	83 81       	ldd	r24, Z+3	; 0x03
     7d2:	1f 92       	push	r1
     7d4:	8f 93       	push	r24
     7d6:	82 81       	ldd	r24, Z+2	; 0x02
     7d8:	1f 92       	push	r1
     7da:	8f 93       	push	r24
     7dc:	81 81       	ldd	r24, Z+1	; 0x01
     7de:	1f 92       	push	r1
     7e0:	8f 93       	push	r24
     7e2:	80 81       	ld	r24, Z
     7e4:	1f 92       	push	r1
     7e6:	8f 93       	push	r24
     7e8:	8a e7       	ldi	r24, 0x7A	; 122
     7ea:	93 e0       	ldi	r25, 0x03	; 3
     7ec:	9f 93       	push	r25
     7ee:	8f 93       	push	r24
     7f0:	0e 94 08 08 	call	0x1010	; 0x1010 <printf>
     7f4:	f8 01       	movw	r30, r16
     7f6:	60 81       	ld	r22, Z
     7f8:	8f e0       	ldi	r24, 0x0F	; 15
     7fa:	90 e0       	ldi	r25, 0x00	; 0
     7fc:	0e 94 d9 00 	call	0x1b2	; 0x1b2 <SPI_Write>
     800:	f8 01       	movw	r30, r16
     802:	61 81       	ldd	r22, Z+1	; 0x01
     804:	80 e1       	ldi	r24, 0x10	; 16
     806:	90 e0       	ldi	r25, 0x00	; 0
     808:	0e 94 d9 00 	call	0x1b2	; 0x1b2 <SPI_Write>
     80c:	f8 01       	movw	r30, r16
     80e:	62 81       	ldd	r22, Z+2	; 0x02
     810:	81 e1       	ldi	r24, 0x11	; 17
     812:	90 e0       	ldi	r25, 0x00	; 0
     814:	0e 94 d9 00 	call	0x1b2	; 0x1b2 <SPI_Write>
     818:	f8 01       	movw	r30, r16
     81a:	63 81       	ldd	r22, Z+3	; 0x03
     81c:	82 e1       	ldi	r24, 0x12	; 18
     81e:	90 e0       	ldi	r25, 0x00	; 0
     820:	0e 94 d9 00 	call	0x1b2	; 0x1b2 <SPI_Write>
     824:	89 ef       	ldi	r24, 0xF9	; 249
     826:	90 e0       	ldi	r25, 0x00	; 0
     828:	01 97       	sbiw	r24, 0x01	; 1
     82a:	f1 f7       	brne	.-4      	; 0x828 <Ethernet_Init+0x2fc>
     82c:	00 c0       	rjmp	.+0      	; 0x82e <Ethernet_Init+0x302>
     82e:	00 00       	nop
     830:	82 e1       	ldi	r24, 0x12	; 18
     832:	90 e0       	ldi	r25, 0x00	; 0
     834:	0e 94 ed 00 	call	0x1da	; 0x1da <SPI_Read>
     838:	18 2f       	mov	r17, r24
     83a:	81 e1       	ldi	r24, 0x11	; 17
     83c:	90 e0       	ldi	r25, 0x00	; 0
     83e:	0e 94 ed 00 	call	0x1da	; 0x1da <SPI_Read>
     842:	d8 2f       	mov	r29, r24
     844:	80 e1       	ldi	r24, 0x10	; 16
     846:	90 e0       	ldi	r25, 0x00	; 0
     848:	0e 94 ed 00 	call	0x1da	; 0x1da <SPI_Read>
     84c:	c8 2f       	mov	r28, r24
     84e:	8f e0       	ldi	r24, 0x0F	; 15
     850:	90 e0       	ldi	r25, 0x00	; 0
     852:	0e 94 ed 00 	call	0x1da	; 0x1da <SPI_Read>
     856:	1f 92       	push	r1
     858:	1f 93       	push	r17
     85a:	1f 92       	push	r1
     85c:	df 93       	push	r29
     85e:	1f 92       	push	r1
     860:	cf 93       	push	r28
     862:	1f 92       	push	r1
     864:	8f 93       	push	r24
     866:	8a e9       	ldi	r24, 0x9A	; 154
     868:	93 e0       	ldi	r25, 0x03	; 3
     86a:	9f 93       	push	r25
     86c:	8f 93       	push	r24
     86e:	0e 94 08 08 	call	0x1010	; 0x1010 <printf>
     872:	86 eb       	ldi	r24, 0xB6	; 182
     874:	93 e0       	ldi	r25, 0x03	; 3
     876:	0e 94 1c 08 	call	0x1038	; 0x1038 <puts>
     87a:	ed b7       	in	r30, 0x3d	; 61
     87c:	fe b7       	in	r31, 0x3e	; 62
     87e:	74 96       	adiw	r30, 0x14	; 20
     880:	0f b6       	in	r0, 0x3f	; 63
     882:	f8 94       	cli
     884:	fe bf       	out	0x3e, r31	; 62
     886:	0f be       	out	0x3f, r0	; 63
     888:	ed bf       	out	0x3d, r30	; 61
     88a:	df 91       	pop	r29
     88c:	cf 91       	pop	r28
     88e:	1f 91       	pop	r17
     890:	0f 91       	pop	r16
     892:	ff 90       	pop	r15
     894:	ef 90       	pop	r14
     896:	df 90       	pop	r13
     898:	cf 90       	pop	r12
     89a:	bf 90       	pop	r11
     89c:	0c 94 75 02 	jmp	0x4ea	; 0x4ea <Memory_Init>

000008a0 <ReceiveSize>:
     8a0:	cf 93       	push	r28
     8a2:	86 e2       	ldi	r24, 0x26	; 38
     8a4:	94 e0       	ldi	r25, 0x04	; 4
     8a6:	0e 94 ed 00 	call	0x1da	; 0x1da <SPI_Read>
     8aa:	c8 2f       	mov	r28, r24
     8ac:	87 e2       	ldi	r24, 0x27	; 39
     8ae:	94 e0       	ldi	r25, 0x04	; 4
     8b0:	0e 94 ed 00 	call	0x1da	; 0x1da <SPI_Read>
     8b4:	2c 2f       	mov	r18, r28
     8b6:	30 e0       	ldi	r19, 0x00	; 0
     8b8:	32 2f       	mov	r19, r18
     8ba:	22 27       	eor	r18, r18
     8bc:	a9 01       	movw	r20, r18
     8be:	48 0f       	add	r20, r24
     8c0:	51 1d       	adc	r21, r1
     8c2:	ca 01       	movw	r24, r20
     8c4:	cf 91       	pop	r28
     8c6:	08 95       	ret

000008c8 <SocketCommand>:
     8c8:	68 2f       	mov	r22, r24
     8ca:	81 e0       	ldi	r24, 0x01	; 1
     8cc:	94 e0       	ldi	r25, 0x04	; 4
     8ce:	0c 94 d9 00 	jmp	0x1b2	; 0x1b2 <SPI_Write>

000008d2 <SendData>:
     8d2:	6f 92       	push	r6
     8d4:	7f 92       	push	r7
     8d6:	8f 92       	push	r8
     8d8:	9f 92       	push	r9
     8da:	af 92       	push	r10
     8dc:	bf 92       	push	r11
     8de:	cf 92       	push	r12
     8e0:	df 92       	push	r13
     8e2:	ef 92       	push	r14
     8e4:	ff 92       	push	r15
     8e6:	0f 93       	push	r16
     8e8:	1f 93       	push	r17
     8ea:	cf 93       	push	r28
     8ec:	df 93       	push	r29
     8ee:	6c 01       	movw	r12, r24
     8f0:	7b 01       	movw	r14, r22
     8f2:	ff 92       	push	r15
     8f4:	6f 93       	push	r22
     8f6:	85 ed       	ldi	r24, 0xD5	; 213
     8f8:	93 e0       	ldi	r25, 0x03	; 3
     8fa:	9f 93       	push	r25
     8fc:	8f 93       	push	r24
     8fe:	0e 94 08 08 	call	0x1010	; 0x1010 <printf>
     902:	80 e2       	ldi	r24, 0x20	; 32
     904:	94 e0       	ldi	r25, 0x04	; 4
     906:	0e 94 ed 00 	call	0x1da	; 0x1da <SPI_Read>
     90a:	c8 2f       	mov	r28, r24
     90c:	d0 e0       	ldi	r29, 0x00	; 0
     90e:	dc 2f       	mov	r29, r28
     910:	cc 27       	eor	r28, r28
     912:	81 e2       	ldi	r24, 0x21	; 33
     914:	94 e0       	ldi	r25, 0x04	; 4
     916:	0e 94 ed 00 	call	0x1da	; 0x1da <SPI_Read>
     91a:	c8 0f       	add	r28, r24
     91c:	d1 1d       	adc	r29, r1
     91e:	df 93       	push	r29
     920:	cf 93       	push	r28
     922:	84 ee       	ldi	r24, 0xE4	; 228
     924:	93 e0       	ldi	r25, 0x03	; 3
     926:	9f 93       	push	r25
     928:	8f 93       	push	r24
     92a:	0e 94 08 08 	call	0x1010	; 0x1010 <printf>
     92e:	ed b7       	in	r30, 0x3d	; 61
     930:	fe b7       	in	r31, 0x3e	; 62
     932:	38 96       	adiw	r30, 0x08	; 8
     934:	0f b6       	in	r0, 0x3f	; 63
     936:	f8 94       	cli
     938:	fe bf       	out	0x3e, r31	; 62
     93a:	0f be       	out	0x3f, r0	; 63
     93c:	ed bf       	out	0x3d, r30	; 61
     93e:	aa ee       	ldi	r26, 0xEA	; 234
     940:	aa 2e       	mov	r10, r26
     942:	a3 e0       	ldi	r26, 0x03	; 3
     944:	ba 2e       	mov	r11, r26
     946:	b6 ef       	ldi	r27, 0xF6	; 246
     948:	8b 2e       	mov	r8, r27
     94a:	b3 e0       	ldi	r27, 0x03	; 3
     94c:	9b 2e       	mov	r9, r27
     94e:	ce 15       	cp	r28, r14
     950:	df 05       	cpc	r29, r15
     952:	90 f5       	brcc	.+100    	; 0x9b8 <__stack+0xb9>
     954:	89 ef       	ldi	r24, 0xF9	; 249
     956:	90 e0       	ldi	r25, 0x00	; 0
     958:	01 97       	sbiw	r24, 0x01	; 1
     95a:	f1 f7       	brne	.-4      	; 0x958 <__stack+0x59>
     95c:	00 c0       	rjmp	.+0      	; 0x95e <__stack+0x5f>
     95e:	00 00       	nop
     960:	80 e2       	ldi	r24, 0x20	; 32
     962:	94 e0       	ldi	r25, 0x04	; 4
     964:	0e 94 ed 00 	call	0x1da	; 0x1da <SPI_Read>
     968:	c8 2f       	mov	r28, r24
     96a:	d0 e0       	ldi	r29, 0x00	; 0
     96c:	dc 2f       	mov	r29, r28
     96e:	cc 27       	eor	r28, r28
     970:	81 e2       	ldi	r24, 0x21	; 33
     972:	94 e0       	ldi	r25, 0x04	; 4
     974:	0e 94 ed 00 	call	0x1da	; 0x1da <SPI_Read>
     978:	c8 0f       	add	r28, r24
     97a:	d1 1d       	adc	r29, r1
     97c:	df 93       	push	r29
     97e:	cf 93       	push	r28
     980:	9f 92       	push	r9
     982:	8f 92       	push	r8
     984:	0e 94 08 08 	call	0x1010	; 0x1010 <printf>
     988:	f1 e0       	ldi	r31, 0x01	; 1
     98a:	af 1a       	sub	r10, r31
     98c:	b1 08       	sbc	r11, r1
     98e:	0f 90       	pop	r0
     990:	0f 90       	pop	r0
     992:	0f 90       	pop	r0
     994:	0f 90       	pop	r0
     996:	a1 14       	cp	r10, r1
     998:	b1 04       	cpc	r11, r1
     99a:	c9 f6       	brne	.-78     	; 0x94e <__stack+0x4f>
     99c:	82 e0       	ldi	r24, 0x02	; 2
     99e:	94 e0       	ldi	r25, 0x04	; 4
     9a0:	0e 94 1c 08 	call	0x1038	; 0x1038 <puts>
     9a4:	88 e0       	ldi	r24, 0x08	; 8
     9a6:	0e 94 64 04 	call	0x8c8	; 0x8c8 <SocketCommand>
     9aa:	81 e0       	ldi	r24, 0x01	; 1
     9ac:	94 e0       	ldi	r25, 0x04	; 4
     9ae:	0e 94 ed 00 	call	0x1da	; 0x1da <SPI_Read>
     9b2:	81 11       	cpse	r24, r1
     9b4:	fa cf       	rjmp	.-12     	; 0x9aa <__stack+0xab>
     9b6:	eb c0       	rjmp	.+470    	; 0xb8e <__stack+0x28f>
     9b8:	84 e2       	ldi	r24, 0x24	; 36
     9ba:	94 e0       	ldi	r25, 0x04	; 4
     9bc:	0e 94 ed 00 	call	0x1da	; 0x1da <SPI_Read>
     9c0:	c8 2f       	mov	r28, r24
     9c2:	85 e2       	ldi	r24, 0x25	; 37
     9c4:	94 e0       	ldi	r25, 0x04	; 4
     9c6:	0e 94 ed 00 	call	0x1da	; 0x1da <SPI_Read>
     9ca:	d0 e0       	ldi	r29, 0x00	; 0
     9cc:	dc 2f       	mov	r29, r28
     9ce:	cc 27       	eor	r28, r28
     9d0:	c8 0f       	add	r28, r24
     9d2:	d1 1d       	adc	r29, r1
     9d4:	82 e2       	ldi	r24, 0x22	; 34
     9d6:	94 e0       	ldi	r25, 0x04	; 4
     9d8:	0e 94 ed 00 	call	0x1da	; 0x1da <SPI_Read>
     9dc:	68 2e       	mov	r6, r24
     9de:	83 e2       	ldi	r24, 0x23	; 35
     9e0:	94 e0       	ldi	r25, 0x04	; 4
     9e2:	0e 94 ed 00 	call	0x1da	; 0x1da <SPI_Read>
     9e6:	78 2e       	mov	r7, r24
     9e8:	df 93       	push	r29
     9ea:	cf 93       	push	r28
     9ec:	46 e1       	ldi	r20, 0x16	; 22
     9ee:	54 e0       	ldi	r21, 0x04	; 4
     9f0:	5f 93       	push	r21
     9f2:	4f 93       	push	r20
     9f4:	0e 94 08 08 	call	0x1010	; 0x1010 <printf>
     9f8:	a0 90 ba 05 	lds	r10, 0x05BA
     9fc:	b0 90 bb 05 	lds	r11, 0x05BB
     a00:	80 90 b8 05 	lds	r8, 0x05B8
     a04:	90 90 b9 05 	lds	r9, 0x05B9
     a08:	ae 01       	movw	r20, r28
     a0a:	48 21       	and	r20, r8
     a0c:	59 21       	and	r21, r9
     a0e:	4a 0d       	add	r20, r10
     a10:	5b 1d       	adc	r21, r11
     a12:	5f 93       	push	r21
     a14:	4f 93       	push	r20
     a16:	45 e2       	ldi	r20, 0x25	; 37
     a18:	54 e0       	ldi	r21, 0x04	; 4
     a1a:	5f 93       	push	r21
     a1c:	4f 93       	push	r20
     a1e:	0e 94 08 08 	call	0x1010	; 0x1010 <printf>
     a22:	26 2d       	mov	r18, r6
     a24:	30 e0       	ldi	r19, 0x00	; 0
     a26:	32 2f       	mov	r19, r18
     a28:	22 27       	eor	r18, r18
     a2a:	27 0d       	add	r18, r7
     a2c:	31 1d       	adc	r19, r1
     a2e:	28 21       	and	r18, r8
     a30:	39 21       	and	r19, r9
     a32:	2a 0d       	add	r18, r10
     a34:	3b 1d       	adc	r19, r11
     a36:	3f 93       	push	r19
     a38:	2f 93       	push	r18
     a3a:	82 e3       	ldi	r24, 0x32	; 50
     a3c:	94 e0       	ldi	r25, 0x04	; 4
     a3e:	9f 93       	push	r25
     a40:	8f 93       	push	r24
     a42:	0e 94 08 08 	call	0x1010	; 0x1010 <printf>
     a46:	56 01       	movw	r10, r12
     a48:	ae 0c       	add	r10, r14
     a4a:	bf 1c       	adc	r11, r15
     a4c:	ed b7       	in	r30, 0x3d	; 61
     a4e:	fe b7       	in	r31, 0x3e	; 62
     a50:	3c 96       	adiw	r30, 0x0c	; 12
     a52:	0f b6       	in	r0, 0x3f	; 63
     a54:	f8 94       	cli
     a56:	fe bf       	out	0x3e, r31	; 62
     a58:	0f be       	out	0x3f, r0	; 63
     a5a:	ed bf       	out	0x3d, r30	; 61
     a5c:	4e 01       	movw	r8, r28
     a5e:	8c 18       	sub	r8, r12
     a60:	9d 08       	sbc	r9, r13
     a62:	c6 01       	movw	r24, r12
     a64:	88 0d       	add	r24, r8
     a66:	99 1d       	adc	r25, r9
     a68:	ca 14       	cp	r12, r10
     a6a:	db 04       	cpc	r13, r11
     a6c:	99 f0       	breq	.+38     	; 0xa94 <__stack+0x195>
     a6e:	00 91 b8 05 	lds	r16, 0x05B8
     a72:	10 91 b9 05 	lds	r17, 0x05B9
     a76:	08 23       	and	r16, r24
     a78:	19 23       	and	r17, r25
     a7a:	80 91 ba 05 	lds	r24, 0x05BA
     a7e:	90 91 bb 05 	lds	r25, 0x05BB
     a82:	08 0f       	add	r16, r24
     a84:	19 1f       	adc	r17, r25
     a86:	f6 01       	movw	r30, r12
     a88:	61 91       	ld	r22, Z+
     a8a:	6f 01       	movw	r12, r30
     a8c:	c8 01       	movw	r24, r16
     a8e:	0e 94 d9 00 	call	0x1b2	; 0x1b2 <SPI_Write>
     a92:	e7 cf       	rjmp	.-50     	; 0xa62 <__stack+0x163>
     a94:	ec 0e       	add	r14, r28
     a96:	fd 1e       	adc	r15, r29
     a98:	60 e0       	ldi	r22, 0x00	; 0
     a9a:	c8 01       	movw	r24, r16
     a9c:	01 96       	adiw	r24, 0x01	; 1
     a9e:	0e 94 d9 00 	call	0x1b2	; 0x1b2 <SPI_Write>
     aa2:	ff 92       	push	r15
     aa4:	ef 92       	push	r14
     aa6:	8f e3       	ldi	r24, 0x3F	; 63
     aa8:	94 e0       	ldi	r25, 0x04	; 4
     aaa:	9f 93       	push	r25
     aac:	8f 93       	push	r24
     aae:	0e 94 08 08 	call	0x1010	; 0x1010 <printf>
     ab2:	84 e2       	ldi	r24, 0x24	; 36
     ab4:	94 e0       	ldi	r25, 0x04	; 4
     ab6:	0e 94 ed 00 	call	0x1da	; 0x1da <SPI_Read>
     aba:	84 e2       	ldi	r24, 0x24	; 36
     abc:	94 e0       	ldi	r25, 0x04	; 4
     abe:	0e 94 ed 00 	call	0x1da	; 0x1da <SPI_Read>
     ac2:	1f 92       	push	r1
     ac4:	8f 93       	push	r24
     ac6:	51 e5       	ldi	r21, 0x51	; 81
     ac8:	c5 2e       	mov	r12, r21
     aca:	54 e0       	ldi	r21, 0x04	; 4
     acc:	d5 2e       	mov	r13, r21
     ace:	df 92       	push	r13
     ad0:	cf 92       	push	r12
     ad2:	0e 94 08 08 	call	0x1010	; 0x1010 <printf>
     ad6:	85 e2       	ldi	r24, 0x25	; 37
     ad8:	94 e0       	ldi	r25, 0x04	; 4
     ada:	0e 94 ed 00 	call	0x1da	; 0x1da <SPI_Read>
     ade:	1f 92       	push	r1
     ae0:	8f 93       	push	r24
     ae2:	0d e5       	ldi	r16, 0x5D	; 93
     ae4:	14 e0       	ldi	r17, 0x04	; 4
     ae6:	1f 93       	push	r17
     ae8:	0f 93       	push	r16
     aea:	0e 94 08 08 	call	0x1010	; 0x1010 <printf>
     aee:	1f 92       	push	r1
     af0:	ff 92       	push	r15
     af2:	cb e3       	ldi	r28, 0x3B	; 59
     af4:	d4 e0       	ldi	r29, 0x04	; 4
     af6:	df 93       	push	r29
     af8:	cf 93       	push	r28
     afa:	0e 94 08 08 	call	0x1010	; 0x1010 <printf>
     afe:	57 01       	movw	r10, r14
     b00:	bb 24       	eor	r11, r11
     b02:	bf 92       	push	r11
     b04:	af 92       	push	r10
     b06:	df 93       	push	r29
     b08:	cf 93       	push	r28
     b0a:	0e 94 08 08 	call	0x1010	; 0x1010 <printf>
     b0e:	6f ef       	ldi	r22, 0xFF	; 255
     b10:	84 e2       	ldi	r24, 0x24	; 36
     b12:	94 e0       	ldi	r25, 0x04	; 4
     b14:	0e 94 d9 00 	call	0x1b2	; 0x1b2 <SPI_Write>
     b18:	6e 2d       	mov	r22, r14
     b1a:	85 e2       	ldi	r24, 0x25	; 37
     b1c:	94 e0       	ldi	r25, 0x04	; 4
     b1e:	0e 94 d9 00 	call	0x1b2	; 0x1b2 <SPI_Write>
     b22:	1f 92       	push	r1
     b24:	ff 92       	push	r15
     b26:	df 93       	push	r29
     b28:	cf 93       	push	r28
     b2a:	0e 94 08 08 	call	0x1010	; 0x1010 <printf>
     b2e:	bf 92       	push	r11
     b30:	af 92       	push	r10
     b32:	df 93       	push	r29
     b34:	cf 93       	push	r28
     b36:	0e 94 08 08 	call	0x1010	; 0x1010 <printf>
     b3a:	84 e2       	ldi	r24, 0x24	; 36
     b3c:	94 e0       	ldi	r25, 0x04	; 4
     b3e:	0e 94 ed 00 	call	0x1da	; 0x1da <SPI_Read>
     b42:	1f 92       	push	r1
     b44:	8f 93       	push	r24
     b46:	df 92       	push	r13
     b48:	cf 92       	push	r12
     b4a:	0e 94 08 08 	call	0x1010	; 0x1010 <printf>
     b4e:	8d b7       	in	r24, 0x3d	; 61
     b50:	9e b7       	in	r25, 0x3e	; 62
     b52:	80 96       	adiw	r24, 0x20	; 32
     b54:	0f b6       	in	r0, 0x3f	; 63
     b56:	f8 94       	cli
     b58:	9e bf       	out	0x3e, r25	; 62
     b5a:	0f be       	out	0x3f, r0	; 63
     b5c:	8d bf       	out	0x3d, r24	; 61
     b5e:	85 e2       	ldi	r24, 0x25	; 37
     b60:	94 e0       	ldi	r25, 0x04	; 4
     b62:	0e 94 ed 00 	call	0x1da	; 0x1da <SPI_Read>
     b66:	1f 92       	push	r1
     b68:	8f 93       	push	r24
     b6a:	1f 93       	push	r17
     b6c:	0f 93       	push	r16
     b6e:	0e 94 08 08 	call	0x1010	; 0x1010 <printf>
     b72:	80 e2       	ldi	r24, 0x20	; 32
     b74:	0e 94 64 04 	call	0x8c8	; 0x8c8 <SocketCommand>
     b78:	0f 90       	pop	r0
     b7a:	0f 90       	pop	r0
     b7c:	0f 90       	pop	r0
     b7e:	0f 90       	pop	r0
     b80:	81 e0       	ldi	r24, 0x01	; 1
     b82:	94 e0       	ldi	r25, 0x04	; 4
     b84:	0e 94 ed 00 	call	0x1da	; 0x1da <SPI_Read>
     b88:	81 11       	cpse	r24, r1
     b8a:	fa cf       	rjmp	.-12     	; 0xb80 <__stack+0x281>
     b8c:	03 c0       	rjmp	.+6      	; 0xb94 <__stack+0x295>
     b8e:	80 e0       	ldi	r24, 0x00	; 0
     b90:	90 e0       	ldi	r25, 0x00	; 0
     b92:	02 c0       	rjmp	.+4      	; 0xb98 <__stack+0x299>
     b94:	81 e0       	ldi	r24, 0x01	; 1
     b96:	90 e0       	ldi	r25, 0x00	; 0
     b98:	df 91       	pop	r29
     b9a:	cf 91       	pop	r28
     b9c:	1f 91       	pop	r17
     b9e:	0f 91       	pop	r16
     ba0:	ff 90       	pop	r15
     ba2:	ef 90       	pop	r14
     ba4:	df 90       	pop	r13
     ba6:	cf 90       	pop	r12
     ba8:	bf 90       	pop	r11
     baa:	af 90       	pop	r10
     bac:	9f 90       	pop	r9
     bae:	8f 90       	pop	r8
     bb0:	7f 90       	pop	r7
     bb2:	6f 90       	pop	r6
     bb4:	08 95       	ret

00000bb6 <ReceiveData>:
     bb6:	af 92       	push	r10
     bb8:	bf 92       	push	r11
     bba:	cf 92       	push	r12
     bbc:	df 92       	push	r13
     bbe:	ef 92       	push	r14
     bc0:	ff 92       	push	r15
     bc2:	0f 93       	push	r16
     bc4:	1f 93       	push	r17
     bc6:	cf 93       	push	r28
     bc8:	df 93       	push	r29
     bca:	ec 01       	movw	r28, r24
     bcc:	7b 01       	movw	r14, r22
     bce:	61 30       	cpi	r22, 0x01	; 1
     bd0:	82 e0       	ldi	r24, 0x02	; 2
     bd2:	78 07       	cpc	r23, r24
     bd4:	20 f0       	brcs	.+8      	; 0xbde <ReceiveData+0x28>
     bd6:	2e ef       	ldi	r18, 0xFE	; 254
     bd8:	e2 2e       	mov	r14, r18
     bda:	ff 24       	eor	r15, r15
     bdc:	f3 94       	inc	r15
     bde:	88 e2       	ldi	r24, 0x28	; 40
     be0:	94 e0       	ldi	r25, 0x04	; 4
     be2:	0e 94 ed 00 	call	0x1da	; 0x1da <SPI_Read>
     be6:	08 2f       	mov	r16, r24
     be8:	89 e2       	ldi	r24, 0x29	; 41
     bea:	94 e0       	ldi	r25, 0x04	; 4
     bec:	0e 94 ed 00 	call	0x1da	; 0x1da <SPI_Read>
     bf0:	10 e0       	ldi	r17, 0x00	; 0
     bf2:	10 2f       	mov	r17, r16
     bf4:	00 27       	eor	r16, r16
     bf6:	08 0f       	add	r16, r24
     bf8:	11 1d       	adc	r17, r1
     bfa:	1f 93       	push	r17
     bfc:	0f 93       	push	r16
     bfe:	8a e6       	ldi	r24, 0x6A	; 106
     c00:	94 e0       	ldi	r25, 0x04	; 4
     c02:	9f 93       	push	r25
     c04:	8f 93       	push	r24
     c06:	0e 94 08 08 	call	0x1010	; 0x1010 <printf>
     c0a:	6e 01       	movw	r12, r28
     c0c:	ce 0c       	add	r12, r14
     c0e:	df 1c       	adc	r13, r15
     c10:	0f 90       	pop	r0
     c12:	0f 90       	pop	r0
     c14:	0f 90       	pop	r0
     c16:	0f 90       	pop	r0
     c18:	58 01       	movw	r10, r16
     c1a:	ac 1a       	sub	r10, r28
     c1c:	bd 0a       	sbc	r11, r29
     c1e:	9e 01       	movw	r18, r28
     c20:	2a 0d       	add	r18, r10
     c22:	3b 1d       	adc	r19, r11
     c24:	cc 15       	cp	r28, r12
     c26:	dd 05       	cpc	r29, r13
     c28:	81 f0       	breq	.+32     	; 0xc4a <ReceiveData+0x94>
     c2a:	80 91 be 05 	lds	r24, 0x05BE
     c2e:	90 91 bf 05 	lds	r25, 0x05BF
     c32:	82 23       	and	r24, r18
     c34:	93 23       	and	r25, r19
     c36:	20 91 bc 05 	lds	r18, 0x05BC
     c3a:	30 91 bd 05 	lds	r19, 0x05BD
     c3e:	82 0f       	add	r24, r18
     c40:	93 1f       	adc	r25, r19
     c42:	0e 94 ed 00 	call	0x1da	; 0x1da <SPI_Read>
     c46:	89 93       	st	Y+, r24
     c48:	ea cf       	rjmp	.-44     	; 0xc1e <ReceiveData+0x68>
     c4a:	0e 0d       	add	r16, r14
     c4c:	1f 1d       	adc	r17, r15
     c4e:	18 82       	st	Y, r1
     c50:	61 2f       	mov	r22, r17
     c52:	88 e2       	ldi	r24, 0x28	; 40
     c54:	94 e0       	ldi	r25, 0x04	; 4
     c56:	0e 94 d9 00 	call	0x1b2	; 0x1b2 <SPI_Write>
     c5a:	60 2f       	mov	r22, r16
     c5c:	89 e2       	ldi	r24, 0x29	; 41
     c5e:	94 e0       	ldi	r25, 0x04	; 4
     c60:	0e 94 d9 00 	call	0x1b2	; 0x1b2 <SPI_Write>
     c64:	80 e4       	ldi	r24, 0x40	; 64
     c66:	0e 94 64 04 	call	0x8c8	; 0x8c8 <SocketCommand>
     c6a:	00 c0       	rjmp	.+0      	; 0xc6c <ReceiveData+0xb6>
     c6c:	00 c0       	rjmp	.+0      	; 0xc6e <ReceiveData+0xb8>
     c6e:	00 00       	nop
     c70:	81 e0       	ldi	r24, 0x01	; 1
     c72:	90 e0       	ldi	r25, 0x00	; 0
     c74:	df 91       	pop	r29
     c76:	cf 91       	pop	r28
     c78:	1f 91       	pop	r17
     c7a:	0f 91       	pop	r16
     c7c:	ff 90       	pop	r15
     c7e:	ef 90       	pop	r14
     c80:	df 90       	pop	r13
     c82:	cf 90       	pop	r12
     c84:	bf 90       	pop	r11
     c86:	af 90       	pop	r10
     c88:	08 95       	ret

00000c8a <SocketDisconnect>:
     c8a:	88 e0       	ldi	r24, 0x08	; 8
     c8c:	0e 94 64 04 	call	0x8c8	; 0x8c8 <SocketCommand>
     c90:	81 e0       	ldi	r24, 0x01	; 1
     c92:	94 e0       	ldi	r25, 0x04	; 4
     c94:	0e 94 ed 00 	call	0x1da	; 0x1da <SPI_Read>
     c98:	81 11       	cpse	r24, r1
     c9a:	fa cf       	rjmp	.-12     	; 0xc90 <SocketDisconnect+0x6>
     c9c:	08 95       	ret

00000c9e <UARTStream_Init>:
     c9e:	8f ef       	ldi	r24, 0xFF	; 255
     ca0:	8a b9       	out	0x0a, r24	; 10
     ca2:	1b b8       	out	0x0b, r1	; 11
     ca4:	80 e0       	ldi	r24, 0x00	; 0
     ca6:	91 e0       	ldi	r25, 0x01	; 1
     ca8:	90 93 c1 05 	sts	0x05C1, r25
     cac:	80 93 c0 05 	sts	0x05C0, r24
     cb0:	90 93 c3 05 	sts	0x05C3, r25
     cb4:	80 93 c2 05 	sts	0x05C2, r24
     cb8:	0e 94 7d 00 	call	0xfa	; 0xfa <uart_init>
     cbc:	0e 94 bb 00 	call	0x176	; 0x176 <ansi_me>
     cc0:	0e 94 91 00 	call	0x122	; 0x122 <ansi_cl>
     cc4:	0e 94 bb 00 	call	0x176	; 0x176 <ansi_me>
     cc8:	0e 94 91 00 	call	0x122	; 0x122 <ansi_cl>
     ccc:	0c 94 89 00 	jmp	0x112	; 0x112 <uart_flush>

00000cd0 <__vector_1>:
     cd0:	1f 92       	push	r1
     cd2:	0f 92       	push	r0
     cd4:	0f b6       	in	r0, 0x3f	; 63
     cd6:	0f 92       	push	r0
     cd8:	11 24       	eor	r1, r1
     cda:	2f 93       	push	r18
     cdc:	3f 93       	push	r19
     cde:	4f 93       	push	r20
     ce0:	5f 93       	push	r21
     ce2:	6f 93       	push	r22
     ce4:	7f 93       	push	r23
     ce6:	8f 93       	push	r24
     ce8:	9f 93       	push	r25
     cea:	af 93       	push	r26
     cec:	bf 93       	push	r27
     cee:	cf 93       	push	r28
     cf0:	ef 93       	push	r30
     cf2:	ff 93       	push	r31
     cf4:	86 e1       	ldi	r24, 0x16	; 22
     cf6:	90 e0       	ldi	r25, 0x00	; 0
     cf8:	0e 94 ed 00 	call	0x1da	; 0x1da <SPI_Read>
     cfc:	1f 92       	push	r1
     cfe:	8f 93       	push	r24
     d00:	89 e7       	ldi	r24, 0x79	; 121
     d02:	94 e0       	ldi	r25, 0x04	; 4
     d04:	9f 93       	push	r25
     d06:	8f 93       	push	r24
     d08:	0e 94 08 08 	call	0x1010	; 0x1010 <printf>
     d0c:	85 e1       	ldi	r24, 0x15	; 21
     d0e:	90 e0       	ldi	r25, 0x00	; 0
     d10:	0e 94 ed 00 	call	0x1da	; 0x1da <SPI_Read>
     d14:	c8 2f       	mov	r28, r24
     d16:	1f 92       	push	r1
     d18:	8f 93       	push	r24
     d1a:	22 e9       	ldi	r18, 0x92	; 146
     d1c:	34 e0       	ldi	r19, 0x04	; 4
     d1e:	3f 93       	push	r19
     d20:	2f 93       	push	r18
     d22:	0e 94 08 08 	call	0x1010	; 0x1010 <printf>
     d26:	60 e0       	ldi	r22, 0x00	; 0
     d28:	82 e0       	ldi	r24, 0x02	; 2
     d2a:	94 e0       	ldi	r25, 0x04	; 4
     d2c:	0e 94 d9 00 	call	0x1b2	; 0x1b2 <SPI_Write>
     d30:	60 e0       	ldi	r22, 0x00	; 0
     d32:	82 e0       	ldi	r24, 0x02	; 2
     d34:	95 e0       	ldi	r25, 0x05	; 5
     d36:	0e 94 d9 00 	call	0x1b2	; 0x1b2 <SPI_Write>
     d3a:	60 e0       	ldi	r22, 0x00	; 0
     d3c:	82 e0       	ldi	r24, 0x02	; 2
     d3e:	96 e0       	ldi	r25, 0x06	; 6
     d40:	0e 94 d9 00 	call	0x1b2	; 0x1b2 <SPI_Write>
     d44:	60 e0       	ldi	r22, 0x00	; 0
     d46:	82 e0       	ldi	r24, 0x02	; 2
     d48:	97 e0       	ldi	r25, 0x07	; 7
     d4a:	0e 94 d9 00 	call	0x1b2	; 0x1b2 <SPI_Write>
     d4e:	85 e1       	ldi	r24, 0x15	; 21
     d50:	90 e0       	ldi	r25, 0x00	; 0
     d52:	0e 94 ed 00 	call	0x1da	; 0x1da <SPI_Read>
     d56:	68 2f       	mov	r22, r24
     d58:	60 6e       	ori	r22, 0xE0	; 224
     d5a:	85 e1       	ldi	r24, 0x15	; 21
     d5c:	90 e0       	ldi	r25, 0x00	; 0
     d5e:	0e 94 d9 00 	call	0x1b2	; 0x1b2 <SPI_Write>
     d62:	8d b7       	in	r24, 0x3d	; 61
     d64:	9e b7       	in	r25, 0x3e	; 62
     d66:	08 96       	adiw	r24, 0x08	; 8
     d68:	0f b6       	in	r0, 0x3f	; 63
     d6a:	f8 94       	cli
     d6c:	9e bf       	out	0x3e, r25	; 62
     d6e:	0f be       	out	0x3f, r0	; 63
     d70:	8d bf       	out	0x3d, r24	; 61
     d72:	c0 ff       	sbrs	r28, 0
     d74:	2b c0       	rjmp	.+86     	; 0xdcc <__vector_1+0xfc>
     d76:	82 e0       	ldi	r24, 0x02	; 2
     d78:	94 e0       	ldi	r25, 0x04	; 4
     d7a:	0e 94 ed 00 	call	0x1da	; 0x1da <SPI_Read>
     d7e:	84 ff       	sbrs	r24, 4
     d80:	03 c0       	rjmp	.+6      	; 0xd88 <__vector_1+0xb8>
     d82:	80 eb       	ldi	r24, 0xB0	; 176
     d84:	94 e0       	ldi	r25, 0x04	; 4
     d86:	13 c0       	rjmp	.+38     	; 0xdae <__vector_1+0xde>
     d88:	83 ff       	sbrs	r24, 3
     d8a:	03 c0       	rjmp	.+6      	; 0xd92 <__vector_1+0xc2>
     d8c:	89 ec       	ldi	r24, 0xC9	; 201
     d8e:	94 e0       	ldi	r25, 0x04	; 4
     d90:	0e c0       	rjmp	.+28     	; 0xdae <__vector_1+0xde>
     d92:	82 ff       	sbrs	r24, 2
     d94:	03 c0       	rjmp	.+6      	; 0xd9c <__vector_1+0xcc>
     d96:	87 ee       	ldi	r24, 0xE7	; 231
     d98:	94 e0       	ldi	r25, 0x04	; 4
     d9a:	09 c0       	rjmp	.+18     	; 0xdae <__vector_1+0xde>
     d9c:	81 ff       	sbrs	r24, 1
     d9e:	03 c0       	rjmp	.+6      	; 0xda6 <__vector_1+0xd6>
     da0:	89 ef       	ldi	r24, 0xF9	; 249
     da2:	94 e0       	ldi	r25, 0x04	; 4
     da4:	04 c0       	rjmp	.+8      	; 0xdae <__vector_1+0xde>
     da6:	80 ff       	sbrs	r24, 0
     da8:	05 c0       	rjmp	.+10     	; 0xdb4 <__vector_1+0xe4>
     daa:	8e e0       	ldi	r24, 0x0E	; 14
     dac:	95 e0       	ldi	r25, 0x05	; 5
     dae:	0e 94 1c 08 	call	0x1038	; 0x1038 <puts>
     db2:	0c c0       	rjmp	.+24     	; 0xdcc <__vector_1+0xfc>
     db4:	1f 92       	push	r1
     db6:	8f 93       	push	r24
     db8:	82 e2       	ldi	r24, 0x22	; 34
     dba:	95 e0       	ldi	r25, 0x05	; 5
     dbc:	9f 93       	push	r25
     dbe:	8f 93       	push	r24
     dc0:	0e 94 08 08 	call	0x1010	; 0x1010 <printf>
     dc4:	0f 90       	pop	r0
     dc6:	0f 90       	pop	r0
     dc8:	0f 90       	pop	r0
     dca:	0f 90       	pop	r0
     dcc:	ff 91       	pop	r31
     dce:	ef 91       	pop	r30
     dd0:	cf 91       	pop	r28
     dd2:	bf 91       	pop	r27
     dd4:	af 91       	pop	r26
     dd6:	9f 91       	pop	r25
     dd8:	8f 91       	pop	r24
     dda:	7f 91       	pop	r23
     ddc:	6f 91       	pop	r22
     dde:	5f 91       	pop	r21
     de0:	4f 91       	pop	r20
     de2:	3f 91       	pop	r19
     de4:	2f 91       	pop	r18
     de6:	0f 90       	pop	r0
     de8:	0f be       	out	0x3f, r0	; 63
     dea:	0f 90       	pop	r0
     dec:	1f 90       	pop	r1
     dee:	18 95       	reti

00000df0 <main>:
     df0:	cf 93       	push	r28
     df2:	df 93       	push	r29
     df4:	cd b7       	in	r28, 0x3d	; 61
     df6:	de b7       	in	r29, 0x3e	; 62
     df8:	c8 54       	subi	r28, 0x48	; 72
     dfa:	d2 40       	sbci	r29, 0x02	; 2
     dfc:	0f b6       	in	r0, 0x3f	; 63
     dfe:	f8 94       	cli
     e00:	de bf       	out	0x3e, r29	; 62
     e02:	0f be       	out	0x3f, r0	; 63
     e04:	cd bf       	out	0x3d, r28	; 61
     e06:	86 e0       	ldi	r24, 0x06	; 6
     e08:	ee e0       	ldi	r30, 0x0E	; 14
     e0a:	f1 e0       	ldi	r31, 0x01	; 1
     e0c:	de 01       	movw	r26, r28
     e0e:	a1 5d       	subi	r26, 0xD1	; 209
     e10:	bd 4f       	sbci	r27, 0xFD	; 253
     e12:	01 90       	ld	r0, Z+
     e14:	0d 92       	st	X+, r0
     e16:	8a 95       	dec	r24
     e18:	e1 f7       	brne	.-8      	; 0xe12 <main+0x22>
     e1a:	30 ec       	ldi	r19, 0xC0	; 192
     e1c:	cf 5b       	subi	r28, 0xBF	; 191
     e1e:	dd 4f       	sbci	r29, 0xFD	; 253
     e20:	38 83       	st	Y, r19
     e22:	c1 54       	subi	r28, 0x41	; 65
     e24:	d2 40       	sbci	r29, 0x02	; 2
     e26:	28 ea       	ldi	r18, 0xA8	; 168
     e28:	ce 5b       	subi	r28, 0xBE	; 190
     e2a:	dd 4f       	sbci	r29, 0xFD	; 253
     e2c:	28 83       	st	Y, r18
     e2e:	c2 54       	subi	r28, 0x42	; 66
     e30:	d2 40       	sbci	r29, 0x02	; 2
     e32:	81 e0       	ldi	r24, 0x01	; 1
     e34:	cd 5b       	subi	r28, 0xBD	; 189
     e36:	dd 4f       	sbci	r29, 0xFD	; 253
     e38:	88 83       	st	Y, r24
     e3a:	c3 54       	subi	r28, 0x43	; 67
     e3c:	d2 40       	sbci	r29, 0x02	; 2
     e3e:	95 e0       	ldi	r25, 0x05	; 5
     e40:	cc 5b       	subi	r28, 0xBC	; 188
     e42:	dd 4f       	sbci	r29, 0xFD	; 253
     e44:	98 83       	st	Y, r25
     e46:	c4 54       	subi	r28, 0x44	; 68
     e48:	d2 40       	sbci	r29, 0x02	; 2
     e4a:	9f ef       	ldi	r25, 0xFF	; 255
     e4c:	c3 5c       	subi	r28, 0xC3	; 195
     e4e:	dd 4f       	sbci	r29, 0xFD	; 253
     e50:	98 83       	st	Y, r25
     e52:	cd 53       	subi	r28, 0x3D	; 61
     e54:	d2 40       	sbci	r29, 0x02	; 2
     e56:	c2 5c       	subi	r28, 0xC2	; 194
     e58:	dd 4f       	sbci	r29, 0xFD	; 253
     e5a:	98 83       	st	Y, r25
     e5c:	ce 53       	subi	r28, 0x3E	; 62
     e5e:	d2 40       	sbci	r29, 0x02	; 2
     e60:	c1 5c       	subi	r28, 0xC1	; 193
     e62:	dd 4f       	sbci	r29, 0xFD	; 253
     e64:	98 83       	st	Y, r25
     e66:	cf 53       	subi	r28, 0x3F	; 63
     e68:	d2 40       	sbci	r29, 0x02	; 2
     e6a:	c0 5c       	subi	r28, 0xC0	; 192
     e6c:	dd 4f       	sbci	r29, 0xFD	; 253
     e6e:	18 82       	st	Y, r1
     e70:	c0 54       	subi	r28, 0x40	; 64
     e72:	d2 40       	sbci	r29, 0x02	; 2
     e74:	c7 5c       	subi	r28, 0xC7	; 199
     e76:	dd 4f       	sbci	r29, 0xFD	; 253
     e78:	38 83       	st	Y, r19
     e7a:	c9 53       	subi	r28, 0x39	; 57
     e7c:	d2 40       	sbci	r29, 0x02	; 2
     e7e:	c6 5c       	subi	r28, 0xC6	; 198
     e80:	dd 4f       	sbci	r29, 0xFD	; 253
     e82:	28 83       	st	Y, r18
     e84:	ca 53       	subi	r28, 0x3A	; 58
     e86:	d2 40       	sbci	r29, 0x02	; 2
     e88:	c5 5c       	subi	r28, 0xC5	; 197
     e8a:	dd 4f       	sbci	r29, 0xFD	; 253
     e8c:	88 83       	st	Y, r24
     e8e:	cb 53       	subi	r28, 0x3B	; 59
     e90:	d2 40       	sbci	r29, 0x02	; 2
     e92:	c4 5c       	subi	r28, 0xC4	; 196
     e94:	dd 4f       	sbci	r29, 0xFD	; 253
     e96:	88 83       	st	Y, r24
     e98:	cc 53       	subi	r28, 0x3C	; 60
     e9a:	d2 40       	sbci	r29, 0x02	; 2
     e9c:	88 e6       	ldi	r24, 0x68	; 104
     e9e:	cb 5c       	subi	r28, 0xCB	; 203
     ea0:	dd 4f       	sbci	r29, 0xFD	; 253
     ea2:	88 83       	st	Y, r24
     ea4:	c5 53       	subi	r28, 0x35	; 53
     ea6:	d2 40       	sbci	r29, 0x02	; 2
     ea8:	83 e8       	ldi	r24, 0x83	; 131
     eaa:	ca 5c       	subi	r28, 0xCA	; 202
     eac:	dd 4f       	sbci	r29, 0xFD	; 253
     eae:	88 83       	st	Y, r24
     eb0:	c6 53       	subi	r28, 0x36	; 54
     eb2:	d2 40       	sbci	r29, 0x02	; 2
     eb4:	84 e2       	ldi	r24, 0x24	; 36
     eb6:	c9 5c       	subi	r28, 0xC9	; 201
     eb8:	dd 4f       	sbci	r29, 0xFD	; 253
     eba:	88 83       	st	Y, r24
     ebc:	c7 53       	subi	r28, 0x37	; 55
     ebe:	d2 40       	sbci	r29, 0x02	; 2
     ec0:	80 e5       	ldi	r24, 0x50	; 80
     ec2:	c8 5c       	subi	r28, 0xC8	; 200
     ec4:	dd 4f       	sbci	r29, 0xFD	; 253
     ec6:	88 83       	st	Y, r24
     ec8:	c8 53       	subi	r28, 0x38	; 56
     eca:	d2 40       	sbci	r29, 0x02	; 2
     ecc:	c9 5b       	subi	r28, 0xB9	; 185
     ece:	dd 4f       	sbci	r29, 0xFD	; 253
     ed0:	18 82       	st	Y, r1
     ed2:	c7 54       	subi	r28, 0x47	; 71
     ed4:	d2 40       	sbci	r29, 0x02	; 2
     ed6:	c8 5b       	subi	r28, 0xB8	; 184
     ed8:	dd 4f       	sbci	r29, 0xFD	; 253
     eda:	88 83       	st	Y, r24
     edc:	c8 54       	subi	r28, 0x48	; 72
     ede:	d2 40       	sbci	r29, 0x02	; 2
     ee0:	cb 5b       	subi	r28, 0xBB	; 187
     ee2:	dd 4f       	sbci	r29, 0xFD	; 253
     ee4:	18 82       	st	Y, r1
     ee6:	c5 54       	subi	r28, 0x45	; 69
     ee8:	d2 40       	sbci	r29, 0x02	; 2
     eea:	ca 5b       	subi	r28, 0xBA	; 186
     eec:	dd 4f       	sbci	r29, 0xFD	; 253
     eee:	88 83       	st	Y, r24
     ef0:	c6 54       	subi	r28, 0x46	; 70
     ef2:	d2 40       	sbci	r29, 0x02	; 2
     ef4:	0e 94 4f 06 	call	0xc9e	; 0xc9e <UARTStream_Init>
     ef8:	9e 01       	movw	r18, r28
     efa:	27 5c       	subi	r18, 0xC7	; 199
     efc:	3d 4f       	sbci	r19, 0xFD	; 253
     efe:	ae 01       	movw	r20, r28
     f00:	43 5c       	subi	r20, 0xC3	; 195
     f02:	5d 4f       	sbci	r21, 0xFD	; 253
     f04:	be 01       	movw	r22, r28
     f06:	6f 5b       	subi	r22, 0xBF	; 191
     f08:	7d 4f       	sbci	r23, 0xFD	; 253
     f0a:	ce 01       	movw	r24, r28
     f0c:	81 5d       	subi	r24, 0xD1	; 209
     f0e:	9d 4f       	sbci	r25, 0xFD	; 253
     f10:	0e 94 96 02 	call	0x52c	; 0x52c <Ethernet_Init>
     f14:	9e 01       	movw	r18, r28
     f16:	2b 5b       	subi	r18, 0xBB	; 187
     f18:	3d 4f       	sbci	r19, 0xFD	; 253
     f1a:	ae 01       	movw	r20, r28
     f1c:	49 5b       	subi	r20, 0xB9	; 185
     f1e:	5d 4f       	sbci	r21, 0xFD	; 253
     f20:	be 01       	movw	r22, r28
     f22:	6b 5c       	subi	r22, 0xCB	; 203
     f24:	7d 4f       	sbci	r23, 0xFD	; 253
     f26:	81 e0       	ldi	r24, 0x01	; 1
     f28:	0e 94 02 01 	call	0x204	; 0x204 <Server_Connect>
     f2c:	8e 01       	movw	r16, r28
     f2e:	0b 50       	subi	r16, 0x0B	; 11
     f30:	1e 4f       	sbci	r17, 0xFE	; 254
     f32:	8a e3       	ldi	r24, 0x3A	; 58
     f34:	ee e7       	ldi	r30, 0x7E	; 126
     f36:	f5 e0       	ldi	r31, 0x05	; 5
     f38:	d8 01       	movw	r26, r16
     f3a:	01 90       	ld	r0, Z+
     f3c:	0d 92       	st	X+, r0
     f3e:	8a 95       	dec	r24
     f40:	e1 f7       	brne	.-8      	; 0xf3a <main+0x14a>
     f42:	1f 93       	push	r17
     f44:	0f 93       	push	r16
     f46:	8e e4       	ldi	r24, 0x4E	; 78
     f48:	95 e0       	ldi	r25, 0x05	; 5
     f4a:	9f 93       	push	r25
     f4c:	8f 93       	push	r24
     f4e:	0e 94 08 08 	call	0x1010	; 0x1010 <printf>
     f52:	f8 01       	movw	r30, r16
     f54:	01 90       	ld	r0, Z+
     f56:	00 20       	and	r0, r0
     f58:	e9 f7       	brne	.-6      	; 0xf54 <main+0x164>
     f5a:	bf 01       	movw	r22, r30
     f5c:	61 50       	subi	r22, 0x01	; 1
     f5e:	71 09       	sbc	r23, r1
     f60:	60 1b       	sub	r22, r16
     f62:	71 0b       	sbc	r23, r17
     f64:	c8 01       	movw	r24, r16
     f66:	0e 94 69 04 	call	0x8d2	; 0x8d2 <SendData>
     f6a:	64 e6       	ldi	r22, 0x64	; 100
     f6c:	70 e0       	ldi	r23, 0x00	; 0
     f6e:	04 5f       	subi	r16, 0xF4	; 244
     f70:	11 40       	sbci	r17, 0x01	; 1
     f72:	c8 01       	movw	r24, r16
     f74:	0e 94 db 05 	call	0xbb6	; 0xbb6 <ReceiveData>
     f78:	0e 94 50 04 	call	0x8a0	; 0x8a0 <ReceiveSize>
     f7c:	9f 93       	push	r25
     f7e:	8f 93       	push	r24
     f80:	80 e6       	ldi	r24, 0x60	; 96
     f82:	95 e0       	ldi	r25, 0x05	; 5
     f84:	9f 93       	push	r25
     f86:	8f 93       	push	r24
     f88:	0e 94 08 08 	call	0x1010	; 0x1010 <printf>
     f8c:	1f 93       	push	r17
     f8e:	0f 93       	push	r16
     f90:	82 e7       	ldi	r24, 0x72	; 114
     f92:	95 e0       	ldi	r25, 0x05	; 5
     f94:	9f 93       	push	r25
     f96:	8f 93       	push	r24
     f98:	0e 94 08 08 	call	0x1010	; 0x1010 <printf>
     f9c:	0e 94 45 06 	call	0xc8a	; 0xc8a <SocketDisconnect>
     fa0:	0f b6       	in	r0, 0x3f	; 63
     fa2:	f8 94       	cli
     fa4:	de bf       	out	0x3e, r29	; 62
     fa6:	0f be       	out	0x3f, r0	; 63
     fa8:	cd bf       	out	0x3d, r28	; 61
     faa:	ff cf       	rjmp	.-2      	; 0xfaa <main+0x1ba>

00000fac <fputc>:
     fac:	0f 93       	push	r16
     fae:	1f 93       	push	r17
     fb0:	cf 93       	push	r28
     fb2:	df 93       	push	r29
     fb4:	18 2f       	mov	r17, r24
     fb6:	09 2f       	mov	r16, r25
     fb8:	eb 01       	movw	r28, r22
     fba:	8b 81       	ldd	r24, Y+3	; 0x03
     fbc:	81 fd       	sbrc	r24, 1
     fbe:	03 c0       	rjmp	.+6      	; 0xfc6 <fputc+0x1a>
     fc0:	8f ef       	ldi	r24, 0xFF	; 255
     fc2:	9f ef       	ldi	r25, 0xFF	; 255
     fc4:	20 c0       	rjmp	.+64     	; 0x1006 <fputc+0x5a>
     fc6:	82 ff       	sbrs	r24, 2
     fc8:	10 c0       	rjmp	.+32     	; 0xfea <fputc+0x3e>
     fca:	4e 81       	ldd	r20, Y+6	; 0x06
     fcc:	5f 81       	ldd	r21, Y+7	; 0x07
     fce:	2c 81       	ldd	r18, Y+4	; 0x04
     fd0:	3d 81       	ldd	r19, Y+5	; 0x05
     fd2:	42 17       	cp	r20, r18
     fd4:	53 07       	cpc	r21, r19
     fd6:	7c f4       	brge	.+30     	; 0xff6 <fputc+0x4a>
     fd8:	e8 81       	ld	r30, Y
     fda:	f9 81       	ldd	r31, Y+1	; 0x01
     fdc:	9f 01       	movw	r18, r30
     fde:	2f 5f       	subi	r18, 0xFF	; 255
     fe0:	3f 4f       	sbci	r19, 0xFF	; 255
     fe2:	39 83       	std	Y+1, r19	; 0x01
     fe4:	28 83       	st	Y, r18
     fe6:	10 83       	st	Z, r17
     fe8:	06 c0       	rjmp	.+12     	; 0xff6 <fputc+0x4a>
     fea:	e8 85       	ldd	r30, Y+8	; 0x08
     fec:	f9 85       	ldd	r31, Y+9	; 0x09
     fee:	81 2f       	mov	r24, r17
     ff0:	09 95       	icall
     ff2:	89 2b       	or	r24, r25
     ff4:	29 f7       	brne	.-54     	; 0xfc0 <fputc+0x14>
     ff6:	2e 81       	ldd	r18, Y+6	; 0x06
     ff8:	3f 81       	ldd	r19, Y+7	; 0x07
     ffa:	2f 5f       	subi	r18, 0xFF	; 255
     ffc:	3f 4f       	sbci	r19, 0xFF	; 255
     ffe:	3f 83       	std	Y+7, r19	; 0x07
    1000:	2e 83       	std	Y+6, r18	; 0x06
    1002:	81 2f       	mov	r24, r17
    1004:	90 2f       	mov	r25, r16
    1006:	df 91       	pop	r29
    1008:	cf 91       	pop	r28
    100a:	1f 91       	pop	r17
    100c:	0f 91       	pop	r16
    100e:	08 95       	ret

00001010 <printf>:
    1010:	a0 e0       	ldi	r26, 0x00	; 0
    1012:	b0 e0       	ldi	r27, 0x00	; 0
    1014:	ee e0       	ldi	r30, 0x0E	; 14
    1016:	f8 e0       	ldi	r31, 0x08	; 8
    1018:	0c 94 9f 0a 	jmp	0x153e	; 0x153e <__prologue_saves__+0x20>
    101c:	fe 01       	movw	r30, r28
    101e:	35 96       	adiw	r30, 0x05	; 5
    1020:	61 91       	ld	r22, Z+
    1022:	71 91       	ld	r23, Z+
    1024:	af 01       	movw	r20, r30
    1026:	80 91 c2 05 	lds	r24, 0x05C2
    102a:	90 91 c3 05 	lds	r25, 0x05C3
    102e:	0e 94 49 08 	call	0x1092	; 0x1092 <vfprintf>
    1032:	e2 e0       	ldi	r30, 0x02	; 2
    1034:	0c 94 bb 0a 	jmp	0x1576	; 0x1576 <__epilogue_restores__+0x20>

00001038 <puts>:
    1038:	0f 93       	push	r16
    103a:	1f 93       	push	r17
    103c:	cf 93       	push	r28
    103e:	df 93       	push	r29
    1040:	e0 91 c2 05 	lds	r30, 0x05C2
    1044:	f0 91 c3 05 	lds	r31, 0x05C3
    1048:	23 81       	ldd	r18, Z+3	; 0x03
    104a:	21 ff       	sbrs	r18, 1
    104c:	1b c0       	rjmp	.+54     	; 0x1084 <puts+0x4c>
    104e:	ec 01       	movw	r28, r24
    1050:	00 e0       	ldi	r16, 0x00	; 0
    1052:	10 e0       	ldi	r17, 0x00	; 0
    1054:	89 91       	ld	r24, Y+
    1056:	60 91 c2 05 	lds	r22, 0x05C2
    105a:	70 91 c3 05 	lds	r23, 0x05C3
    105e:	db 01       	movw	r26, r22
    1060:	18 96       	adiw	r26, 0x08	; 8
    1062:	ed 91       	ld	r30, X+
    1064:	fc 91       	ld	r31, X
    1066:	19 97       	sbiw	r26, 0x09	; 9
    1068:	88 23       	and	r24, r24
    106a:	31 f0       	breq	.+12     	; 0x1078 <puts+0x40>
    106c:	09 95       	icall
    106e:	89 2b       	or	r24, r25
    1070:	89 f3       	breq	.-30     	; 0x1054 <puts+0x1c>
    1072:	0f ef       	ldi	r16, 0xFF	; 255
    1074:	1f ef       	ldi	r17, 0xFF	; 255
    1076:	ee cf       	rjmp	.-36     	; 0x1054 <puts+0x1c>
    1078:	8a e0       	ldi	r24, 0x0A	; 10
    107a:	09 95       	icall
    107c:	89 2b       	or	r24, r25
    107e:	11 f4       	brne	.+4      	; 0x1084 <puts+0x4c>
    1080:	c8 01       	movw	r24, r16
    1082:	02 c0       	rjmp	.+4      	; 0x1088 <puts+0x50>
    1084:	8f ef       	ldi	r24, 0xFF	; 255
    1086:	9f ef       	ldi	r25, 0xFF	; 255
    1088:	df 91       	pop	r29
    108a:	cf 91       	pop	r28
    108c:	1f 91       	pop	r17
    108e:	0f 91       	pop	r16
    1090:	08 95       	ret

00001092 <vfprintf>:
    1092:	ac e0       	ldi	r26, 0x0C	; 12
    1094:	b0 e0       	ldi	r27, 0x00	; 0
    1096:	ef e4       	ldi	r30, 0x4F	; 79
    1098:	f8 e0       	ldi	r31, 0x08	; 8
    109a:	0c 94 8f 0a 	jmp	0x151e	; 0x151e <__prologue_saves__>
    109e:	7c 01       	movw	r14, r24
    10a0:	6b 01       	movw	r12, r22
    10a2:	8a 01       	movw	r16, r20
    10a4:	fc 01       	movw	r30, r24
    10a6:	17 82       	std	Z+7, r1	; 0x07
    10a8:	16 82       	std	Z+6, r1	; 0x06
    10aa:	83 81       	ldd	r24, Z+3	; 0x03
    10ac:	81 ff       	sbrs	r24, 1
    10ae:	bd c1       	rjmp	.+890    	; 0x142a <vfprintf+0x398>
    10b0:	ce 01       	movw	r24, r28
    10b2:	01 96       	adiw	r24, 0x01	; 1
    10b4:	4c 01       	movw	r8, r24
    10b6:	f7 01       	movw	r30, r14
    10b8:	93 81       	ldd	r25, Z+3	; 0x03
    10ba:	f6 01       	movw	r30, r12
    10bc:	93 fd       	sbrc	r25, 3
    10be:	85 91       	lpm	r24, Z+
    10c0:	93 ff       	sbrs	r25, 3
    10c2:	81 91       	ld	r24, Z+
    10c4:	6f 01       	movw	r12, r30
    10c6:	88 23       	and	r24, r24
    10c8:	09 f4       	brne	.+2      	; 0x10cc <vfprintf+0x3a>
    10ca:	ab c1       	rjmp	.+854    	; 0x1422 <vfprintf+0x390>
    10cc:	85 32       	cpi	r24, 0x25	; 37
    10ce:	39 f4       	brne	.+14     	; 0x10de <vfprintf+0x4c>
    10d0:	93 fd       	sbrc	r25, 3
    10d2:	85 91       	lpm	r24, Z+
    10d4:	93 ff       	sbrs	r25, 3
    10d6:	81 91       	ld	r24, Z+
    10d8:	6f 01       	movw	r12, r30
    10da:	85 32       	cpi	r24, 0x25	; 37
    10dc:	29 f4       	brne	.+10     	; 0x10e8 <vfprintf+0x56>
    10de:	b7 01       	movw	r22, r14
    10e0:	90 e0       	ldi	r25, 0x00	; 0
    10e2:	0e 94 d6 07 	call	0xfac	; 0xfac <fputc>
    10e6:	e7 cf       	rjmp	.-50     	; 0x10b6 <vfprintf+0x24>
    10e8:	51 2c       	mov	r5, r1
    10ea:	31 2c       	mov	r3, r1
    10ec:	20 e0       	ldi	r18, 0x00	; 0
    10ee:	20 32       	cpi	r18, 0x20	; 32
    10f0:	a0 f4       	brcc	.+40     	; 0x111a <vfprintf+0x88>
    10f2:	8b 32       	cpi	r24, 0x2B	; 43
    10f4:	69 f0       	breq	.+26     	; 0x1110 <vfprintf+0x7e>
    10f6:	30 f4       	brcc	.+12     	; 0x1104 <vfprintf+0x72>
    10f8:	80 32       	cpi	r24, 0x20	; 32
    10fa:	59 f0       	breq	.+22     	; 0x1112 <vfprintf+0x80>
    10fc:	83 32       	cpi	r24, 0x23	; 35
    10fe:	69 f4       	brne	.+26     	; 0x111a <vfprintf+0x88>
    1100:	20 61       	ori	r18, 0x10	; 16
    1102:	2c c0       	rjmp	.+88     	; 0x115c <vfprintf+0xca>
    1104:	8d 32       	cpi	r24, 0x2D	; 45
    1106:	39 f0       	breq	.+14     	; 0x1116 <vfprintf+0x84>
    1108:	80 33       	cpi	r24, 0x30	; 48
    110a:	39 f4       	brne	.+14     	; 0x111a <vfprintf+0x88>
    110c:	21 60       	ori	r18, 0x01	; 1
    110e:	26 c0       	rjmp	.+76     	; 0x115c <vfprintf+0xca>
    1110:	22 60       	ori	r18, 0x02	; 2
    1112:	24 60       	ori	r18, 0x04	; 4
    1114:	23 c0       	rjmp	.+70     	; 0x115c <vfprintf+0xca>
    1116:	28 60       	ori	r18, 0x08	; 8
    1118:	21 c0       	rjmp	.+66     	; 0x115c <vfprintf+0xca>
    111a:	27 fd       	sbrc	r18, 7
    111c:	27 c0       	rjmp	.+78     	; 0x116c <vfprintf+0xda>
    111e:	30 ed       	ldi	r19, 0xD0	; 208
    1120:	38 0f       	add	r19, r24
    1122:	3a 30       	cpi	r19, 0x0A	; 10
    1124:	78 f4       	brcc	.+30     	; 0x1144 <vfprintf+0xb2>
    1126:	26 ff       	sbrs	r18, 6
    1128:	06 c0       	rjmp	.+12     	; 0x1136 <vfprintf+0xa4>
    112a:	fa e0       	ldi	r31, 0x0A	; 10
    112c:	5f 9e       	mul	r5, r31
    112e:	30 0d       	add	r19, r0
    1130:	11 24       	eor	r1, r1
    1132:	53 2e       	mov	r5, r19
    1134:	13 c0       	rjmp	.+38     	; 0x115c <vfprintf+0xca>
    1136:	8a e0       	ldi	r24, 0x0A	; 10
    1138:	38 9e       	mul	r3, r24
    113a:	30 0d       	add	r19, r0
    113c:	11 24       	eor	r1, r1
    113e:	33 2e       	mov	r3, r19
    1140:	20 62       	ori	r18, 0x20	; 32
    1142:	0c c0       	rjmp	.+24     	; 0x115c <vfprintf+0xca>
    1144:	8e 32       	cpi	r24, 0x2E	; 46
    1146:	21 f4       	brne	.+8      	; 0x1150 <vfprintf+0xbe>
    1148:	26 fd       	sbrc	r18, 6
    114a:	6b c1       	rjmp	.+726    	; 0x1422 <vfprintf+0x390>
    114c:	20 64       	ori	r18, 0x40	; 64
    114e:	06 c0       	rjmp	.+12     	; 0x115c <vfprintf+0xca>
    1150:	8c 36       	cpi	r24, 0x6C	; 108
    1152:	11 f4       	brne	.+4      	; 0x1158 <vfprintf+0xc6>
    1154:	20 68       	ori	r18, 0x80	; 128
    1156:	02 c0       	rjmp	.+4      	; 0x115c <vfprintf+0xca>
    1158:	88 36       	cpi	r24, 0x68	; 104
    115a:	41 f4       	brne	.+16     	; 0x116c <vfprintf+0xda>
    115c:	f6 01       	movw	r30, r12
    115e:	93 fd       	sbrc	r25, 3
    1160:	85 91       	lpm	r24, Z+
    1162:	93 ff       	sbrs	r25, 3
    1164:	81 91       	ld	r24, Z+
    1166:	6f 01       	movw	r12, r30
    1168:	81 11       	cpse	r24, r1
    116a:	c1 cf       	rjmp	.-126    	; 0x10ee <vfprintf+0x5c>
    116c:	98 2f       	mov	r25, r24
    116e:	9f 7d       	andi	r25, 0xDF	; 223
    1170:	95 54       	subi	r25, 0x45	; 69
    1172:	93 30       	cpi	r25, 0x03	; 3
    1174:	28 f4       	brcc	.+10     	; 0x1180 <vfprintf+0xee>
    1176:	0c 5f       	subi	r16, 0xFC	; 252
    1178:	1f 4f       	sbci	r17, 0xFF	; 255
    117a:	ff e3       	ldi	r31, 0x3F	; 63
    117c:	f9 83       	std	Y+1, r31	; 0x01
    117e:	0d c0       	rjmp	.+26     	; 0x119a <vfprintf+0x108>
    1180:	83 36       	cpi	r24, 0x63	; 99
    1182:	31 f0       	breq	.+12     	; 0x1190 <vfprintf+0xfe>
    1184:	83 37       	cpi	r24, 0x73	; 115
    1186:	71 f0       	breq	.+28     	; 0x11a4 <vfprintf+0x112>
    1188:	83 35       	cpi	r24, 0x53	; 83
    118a:	09 f0       	breq	.+2      	; 0x118e <vfprintf+0xfc>
    118c:	5b c0       	rjmp	.+182    	; 0x1244 <vfprintf+0x1b2>
    118e:	22 c0       	rjmp	.+68     	; 0x11d4 <vfprintf+0x142>
    1190:	f8 01       	movw	r30, r16
    1192:	80 81       	ld	r24, Z
    1194:	89 83       	std	Y+1, r24	; 0x01
    1196:	0e 5f       	subi	r16, 0xFE	; 254
    1198:	1f 4f       	sbci	r17, 0xFF	; 255
    119a:	44 24       	eor	r4, r4
    119c:	43 94       	inc	r4
    119e:	51 2c       	mov	r5, r1
    11a0:	54 01       	movw	r10, r8
    11a2:	15 c0       	rjmp	.+42     	; 0x11ce <vfprintf+0x13c>
    11a4:	38 01       	movw	r6, r16
    11a6:	f2 e0       	ldi	r31, 0x02	; 2
    11a8:	6f 0e       	add	r6, r31
    11aa:	71 1c       	adc	r7, r1
    11ac:	f8 01       	movw	r30, r16
    11ae:	a0 80       	ld	r10, Z
    11b0:	b1 80       	ldd	r11, Z+1	; 0x01
    11b2:	26 ff       	sbrs	r18, 6
    11b4:	03 c0       	rjmp	.+6      	; 0x11bc <vfprintf+0x12a>
    11b6:	65 2d       	mov	r22, r5
    11b8:	70 e0       	ldi	r23, 0x00	; 0
    11ba:	02 c0       	rjmp	.+4      	; 0x11c0 <vfprintf+0x12e>
    11bc:	6f ef       	ldi	r22, 0xFF	; 255
    11be:	7f ef       	ldi	r23, 0xFF	; 255
    11c0:	c5 01       	movw	r24, r10
    11c2:	2c 87       	std	Y+12, r18	; 0x0c
    11c4:	0e 94 26 0a 	call	0x144c	; 0x144c <strnlen>
    11c8:	2c 01       	movw	r4, r24
    11ca:	83 01       	movw	r16, r6
    11cc:	2c 85       	ldd	r18, Y+12	; 0x0c
    11ce:	2f 77       	andi	r18, 0x7F	; 127
    11d0:	22 2e       	mov	r2, r18
    11d2:	17 c0       	rjmp	.+46     	; 0x1202 <vfprintf+0x170>
    11d4:	38 01       	movw	r6, r16
    11d6:	f2 e0       	ldi	r31, 0x02	; 2
    11d8:	6f 0e       	add	r6, r31
    11da:	71 1c       	adc	r7, r1
    11dc:	f8 01       	movw	r30, r16
    11de:	a0 80       	ld	r10, Z
    11e0:	b1 80       	ldd	r11, Z+1	; 0x01
    11e2:	26 ff       	sbrs	r18, 6
    11e4:	03 c0       	rjmp	.+6      	; 0x11ec <vfprintf+0x15a>
    11e6:	65 2d       	mov	r22, r5
    11e8:	70 e0       	ldi	r23, 0x00	; 0
    11ea:	02 c0       	rjmp	.+4      	; 0x11f0 <vfprintf+0x15e>
    11ec:	6f ef       	ldi	r22, 0xFF	; 255
    11ee:	7f ef       	ldi	r23, 0xFF	; 255
    11f0:	c5 01       	movw	r24, r10
    11f2:	2c 87       	std	Y+12, r18	; 0x0c
    11f4:	0e 94 1b 0a 	call	0x1436	; 0x1436 <strnlen_P>
    11f8:	2c 01       	movw	r4, r24
    11fa:	2c 85       	ldd	r18, Y+12	; 0x0c
    11fc:	20 68       	ori	r18, 0x80	; 128
    11fe:	22 2e       	mov	r2, r18
    1200:	83 01       	movw	r16, r6
    1202:	23 fc       	sbrc	r2, 3
    1204:	1b c0       	rjmp	.+54     	; 0x123c <vfprintf+0x1aa>
    1206:	83 2d       	mov	r24, r3
    1208:	90 e0       	ldi	r25, 0x00	; 0
    120a:	48 16       	cp	r4, r24
    120c:	59 06       	cpc	r5, r25
    120e:	b0 f4       	brcc	.+44     	; 0x123c <vfprintf+0x1aa>
    1210:	b7 01       	movw	r22, r14
    1212:	80 e2       	ldi	r24, 0x20	; 32
    1214:	90 e0       	ldi	r25, 0x00	; 0
    1216:	0e 94 d6 07 	call	0xfac	; 0xfac <fputc>
    121a:	3a 94       	dec	r3
    121c:	f4 cf       	rjmp	.-24     	; 0x1206 <vfprintf+0x174>
    121e:	f5 01       	movw	r30, r10
    1220:	27 fc       	sbrc	r2, 7
    1222:	85 91       	lpm	r24, Z+
    1224:	27 fe       	sbrs	r2, 7
    1226:	81 91       	ld	r24, Z+
    1228:	5f 01       	movw	r10, r30
    122a:	b7 01       	movw	r22, r14
    122c:	90 e0       	ldi	r25, 0x00	; 0
    122e:	0e 94 d6 07 	call	0xfac	; 0xfac <fputc>
    1232:	31 10       	cpse	r3, r1
    1234:	3a 94       	dec	r3
    1236:	f1 e0       	ldi	r31, 0x01	; 1
    1238:	4f 1a       	sub	r4, r31
    123a:	51 08       	sbc	r5, r1
    123c:	41 14       	cp	r4, r1
    123e:	51 04       	cpc	r5, r1
    1240:	71 f7       	brne	.-36     	; 0x121e <vfprintf+0x18c>
    1242:	e5 c0       	rjmp	.+458    	; 0x140e <vfprintf+0x37c>
    1244:	84 36       	cpi	r24, 0x64	; 100
    1246:	11 f0       	breq	.+4      	; 0x124c <vfprintf+0x1ba>
    1248:	89 36       	cpi	r24, 0x69	; 105
    124a:	39 f5       	brne	.+78     	; 0x129a <vfprintf+0x208>
    124c:	f8 01       	movw	r30, r16
    124e:	27 ff       	sbrs	r18, 7
    1250:	07 c0       	rjmp	.+14     	; 0x1260 <vfprintf+0x1ce>
    1252:	60 81       	ld	r22, Z
    1254:	71 81       	ldd	r23, Z+1	; 0x01
    1256:	82 81       	ldd	r24, Z+2	; 0x02
    1258:	93 81       	ldd	r25, Z+3	; 0x03
    125a:	0c 5f       	subi	r16, 0xFC	; 252
    125c:	1f 4f       	sbci	r17, 0xFF	; 255
    125e:	08 c0       	rjmp	.+16     	; 0x1270 <vfprintf+0x1de>
    1260:	60 81       	ld	r22, Z
    1262:	71 81       	ldd	r23, Z+1	; 0x01
    1264:	88 27       	eor	r24, r24
    1266:	77 fd       	sbrc	r23, 7
    1268:	80 95       	com	r24
    126a:	98 2f       	mov	r25, r24
    126c:	0e 5f       	subi	r16, 0xFE	; 254
    126e:	1f 4f       	sbci	r17, 0xFF	; 255
    1270:	2f 76       	andi	r18, 0x6F	; 111
    1272:	b2 2e       	mov	r11, r18
    1274:	97 ff       	sbrs	r25, 7
    1276:	09 c0       	rjmp	.+18     	; 0x128a <vfprintf+0x1f8>
    1278:	90 95       	com	r25
    127a:	80 95       	com	r24
    127c:	70 95       	com	r23
    127e:	61 95       	neg	r22
    1280:	7f 4f       	sbci	r23, 0xFF	; 255
    1282:	8f 4f       	sbci	r24, 0xFF	; 255
    1284:	9f 4f       	sbci	r25, 0xFF	; 255
    1286:	20 68       	ori	r18, 0x80	; 128
    1288:	b2 2e       	mov	r11, r18
    128a:	2a e0       	ldi	r18, 0x0A	; 10
    128c:	30 e0       	ldi	r19, 0x00	; 0
    128e:	a4 01       	movw	r20, r8
    1290:	0e 94 31 0a 	call	0x1462	; 0x1462 <__ultoa_invert>
    1294:	a8 2e       	mov	r10, r24
    1296:	a8 18       	sub	r10, r8
    1298:	44 c0       	rjmp	.+136    	; 0x1322 <vfprintf+0x290>
    129a:	85 37       	cpi	r24, 0x75	; 117
    129c:	29 f4       	brne	.+10     	; 0x12a8 <vfprintf+0x216>
    129e:	2f 7e       	andi	r18, 0xEF	; 239
    12a0:	b2 2e       	mov	r11, r18
    12a2:	2a e0       	ldi	r18, 0x0A	; 10
    12a4:	30 e0       	ldi	r19, 0x00	; 0
    12a6:	25 c0       	rjmp	.+74     	; 0x12f2 <vfprintf+0x260>
    12a8:	f2 2f       	mov	r31, r18
    12aa:	f9 7f       	andi	r31, 0xF9	; 249
    12ac:	bf 2e       	mov	r11, r31
    12ae:	8f 36       	cpi	r24, 0x6F	; 111
    12b0:	c1 f0       	breq	.+48     	; 0x12e2 <vfprintf+0x250>
    12b2:	18 f4       	brcc	.+6      	; 0x12ba <vfprintf+0x228>
    12b4:	88 35       	cpi	r24, 0x58	; 88
    12b6:	79 f0       	breq	.+30     	; 0x12d6 <vfprintf+0x244>
    12b8:	b4 c0       	rjmp	.+360    	; 0x1422 <vfprintf+0x390>
    12ba:	80 37       	cpi	r24, 0x70	; 112
    12bc:	19 f0       	breq	.+6      	; 0x12c4 <vfprintf+0x232>
    12be:	88 37       	cpi	r24, 0x78	; 120
    12c0:	21 f0       	breq	.+8      	; 0x12ca <vfprintf+0x238>
    12c2:	af c0       	rjmp	.+350    	; 0x1422 <vfprintf+0x390>
    12c4:	2f 2f       	mov	r18, r31
    12c6:	20 61       	ori	r18, 0x10	; 16
    12c8:	b2 2e       	mov	r11, r18
    12ca:	b4 fe       	sbrs	r11, 4
    12cc:	0d c0       	rjmp	.+26     	; 0x12e8 <vfprintf+0x256>
    12ce:	8b 2d       	mov	r24, r11
    12d0:	84 60       	ori	r24, 0x04	; 4
    12d2:	b8 2e       	mov	r11, r24
    12d4:	09 c0       	rjmp	.+18     	; 0x12e8 <vfprintf+0x256>
    12d6:	24 ff       	sbrs	r18, 4
    12d8:	0a c0       	rjmp	.+20     	; 0x12ee <vfprintf+0x25c>
    12da:	9f 2f       	mov	r25, r31
    12dc:	96 60       	ori	r25, 0x06	; 6
    12de:	b9 2e       	mov	r11, r25
    12e0:	06 c0       	rjmp	.+12     	; 0x12ee <vfprintf+0x25c>
    12e2:	28 e0       	ldi	r18, 0x08	; 8
    12e4:	30 e0       	ldi	r19, 0x00	; 0
    12e6:	05 c0       	rjmp	.+10     	; 0x12f2 <vfprintf+0x260>
    12e8:	20 e1       	ldi	r18, 0x10	; 16
    12ea:	30 e0       	ldi	r19, 0x00	; 0
    12ec:	02 c0       	rjmp	.+4      	; 0x12f2 <vfprintf+0x260>
    12ee:	20 e1       	ldi	r18, 0x10	; 16
    12f0:	32 e0       	ldi	r19, 0x02	; 2
    12f2:	f8 01       	movw	r30, r16
    12f4:	b7 fe       	sbrs	r11, 7
    12f6:	07 c0       	rjmp	.+14     	; 0x1306 <vfprintf+0x274>
    12f8:	60 81       	ld	r22, Z
    12fa:	71 81       	ldd	r23, Z+1	; 0x01
    12fc:	82 81       	ldd	r24, Z+2	; 0x02
    12fe:	93 81       	ldd	r25, Z+3	; 0x03
    1300:	0c 5f       	subi	r16, 0xFC	; 252
    1302:	1f 4f       	sbci	r17, 0xFF	; 255
    1304:	06 c0       	rjmp	.+12     	; 0x1312 <vfprintf+0x280>
    1306:	60 81       	ld	r22, Z
    1308:	71 81       	ldd	r23, Z+1	; 0x01
    130a:	80 e0       	ldi	r24, 0x00	; 0
    130c:	90 e0       	ldi	r25, 0x00	; 0
    130e:	0e 5f       	subi	r16, 0xFE	; 254
    1310:	1f 4f       	sbci	r17, 0xFF	; 255
    1312:	a4 01       	movw	r20, r8
    1314:	0e 94 31 0a 	call	0x1462	; 0x1462 <__ultoa_invert>
    1318:	a8 2e       	mov	r10, r24
    131a:	a8 18       	sub	r10, r8
    131c:	fb 2d       	mov	r31, r11
    131e:	ff 77       	andi	r31, 0x7F	; 127
    1320:	bf 2e       	mov	r11, r31
    1322:	b6 fe       	sbrs	r11, 6
    1324:	0b c0       	rjmp	.+22     	; 0x133c <vfprintf+0x2aa>
    1326:	2b 2d       	mov	r18, r11
    1328:	2e 7f       	andi	r18, 0xFE	; 254
    132a:	a5 14       	cp	r10, r5
    132c:	50 f4       	brcc	.+20     	; 0x1342 <vfprintf+0x2b0>
    132e:	b4 fe       	sbrs	r11, 4
    1330:	0a c0       	rjmp	.+20     	; 0x1346 <vfprintf+0x2b4>
    1332:	b2 fc       	sbrc	r11, 2
    1334:	08 c0       	rjmp	.+16     	; 0x1346 <vfprintf+0x2b4>
    1336:	2b 2d       	mov	r18, r11
    1338:	2e 7e       	andi	r18, 0xEE	; 238
    133a:	05 c0       	rjmp	.+10     	; 0x1346 <vfprintf+0x2b4>
    133c:	7a 2c       	mov	r7, r10
    133e:	2b 2d       	mov	r18, r11
    1340:	03 c0       	rjmp	.+6      	; 0x1348 <vfprintf+0x2b6>
    1342:	7a 2c       	mov	r7, r10
    1344:	01 c0       	rjmp	.+2      	; 0x1348 <vfprintf+0x2b6>
    1346:	75 2c       	mov	r7, r5
    1348:	24 ff       	sbrs	r18, 4
    134a:	0d c0       	rjmp	.+26     	; 0x1366 <vfprintf+0x2d4>
    134c:	fe 01       	movw	r30, r28
    134e:	ea 0d       	add	r30, r10
    1350:	f1 1d       	adc	r31, r1
    1352:	80 81       	ld	r24, Z
    1354:	80 33       	cpi	r24, 0x30	; 48
    1356:	11 f4       	brne	.+4      	; 0x135c <vfprintf+0x2ca>
    1358:	29 7e       	andi	r18, 0xE9	; 233
    135a:	09 c0       	rjmp	.+18     	; 0x136e <vfprintf+0x2dc>
    135c:	22 ff       	sbrs	r18, 2
    135e:	06 c0       	rjmp	.+12     	; 0x136c <vfprintf+0x2da>
    1360:	73 94       	inc	r7
    1362:	73 94       	inc	r7
    1364:	04 c0       	rjmp	.+8      	; 0x136e <vfprintf+0x2dc>
    1366:	82 2f       	mov	r24, r18
    1368:	86 78       	andi	r24, 0x86	; 134
    136a:	09 f0       	breq	.+2      	; 0x136e <vfprintf+0x2dc>
    136c:	73 94       	inc	r7
    136e:	23 fd       	sbrc	r18, 3
    1370:	13 c0       	rjmp	.+38     	; 0x1398 <vfprintf+0x306>
    1372:	20 ff       	sbrs	r18, 0
    1374:	06 c0       	rjmp	.+12     	; 0x1382 <vfprintf+0x2f0>
    1376:	5a 2c       	mov	r5, r10
    1378:	73 14       	cp	r7, r3
    137a:	18 f4       	brcc	.+6      	; 0x1382 <vfprintf+0x2f0>
    137c:	53 0c       	add	r5, r3
    137e:	57 18       	sub	r5, r7
    1380:	73 2c       	mov	r7, r3
    1382:	73 14       	cp	r7, r3
    1384:	68 f4       	brcc	.+26     	; 0x13a0 <vfprintf+0x30e>
    1386:	b7 01       	movw	r22, r14
    1388:	80 e2       	ldi	r24, 0x20	; 32
    138a:	90 e0       	ldi	r25, 0x00	; 0
    138c:	2c 87       	std	Y+12, r18	; 0x0c
    138e:	0e 94 d6 07 	call	0xfac	; 0xfac <fputc>
    1392:	73 94       	inc	r7
    1394:	2c 85       	ldd	r18, Y+12	; 0x0c
    1396:	f5 cf       	rjmp	.-22     	; 0x1382 <vfprintf+0x2f0>
    1398:	73 14       	cp	r7, r3
    139a:	10 f4       	brcc	.+4      	; 0x13a0 <vfprintf+0x30e>
    139c:	37 18       	sub	r3, r7
    139e:	01 c0       	rjmp	.+2      	; 0x13a2 <vfprintf+0x310>
    13a0:	31 2c       	mov	r3, r1
    13a2:	24 ff       	sbrs	r18, 4
    13a4:	12 c0       	rjmp	.+36     	; 0x13ca <vfprintf+0x338>
    13a6:	b7 01       	movw	r22, r14
    13a8:	80 e3       	ldi	r24, 0x30	; 48
    13aa:	90 e0       	ldi	r25, 0x00	; 0
    13ac:	2c 87       	std	Y+12, r18	; 0x0c
    13ae:	0e 94 d6 07 	call	0xfac	; 0xfac <fputc>
    13b2:	2c 85       	ldd	r18, Y+12	; 0x0c
    13b4:	22 ff       	sbrs	r18, 2
    13b6:	17 c0       	rjmp	.+46     	; 0x13e6 <vfprintf+0x354>
    13b8:	21 ff       	sbrs	r18, 1
    13ba:	03 c0       	rjmp	.+6      	; 0x13c2 <vfprintf+0x330>
    13bc:	88 e5       	ldi	r24, 0x58	; 88
    13be:	90 e0       	ldi	r25, 0x00	; 0
    13c0:	02 c0       	rjmp	.+4      	; 0x13c6 <vfprintf+0x334>
    13c2:	88 e7       	ldi	r24, 0x78	; 120
    13c4:	90 e0       	ldi	r25, 0x00	; 0
    13c6:	b7 01       	movw	r22, r14
    13c8:	0c c0       	rjmp	.+24     	; 0x13e2 <vfprintf+0x350>
    13ca:	82 2f       	mov	r24, r18
    13cc:	86 78       	andi	r24, 0x86	; 134
    13ce:	59 f0       	breq	.+22     	; 0x13e6 <vfprintf+0x354>
    13d0:	21 fd       	sbrc	r18, 1
    13d2:	02 c0       	rjmp	.+4      	; 0x13d8 <vfprintf+0x346>
    13d4:	80 e2       	ldi	r24, 0x20	; 32
    13d6:	01 c0       	rjmp	.+2      	; 0x13da <vfprintf+0x348>
    13d8:	8b e2       	ldi	r24, 0x2B	; 43
    13da:	27 fd       	sbrc	r18, 7
    13dc:	8d e2       	ldi	r24, 0x2D	; 45
    13de:	b7 01       	movw	r22, r14
    13e0:	90 e0       	ldi	r25, 0x00	; 0
    13e2:	0e 94 d6 07 	call	0xfac	; 0xfac <fputc>
    13e6:	a5 14       	cp	r10, r5
    13e8:	38 f4       	brcc	.+14     	; 0x13f8 <vfprintf+0x366>
    13ea:	b7 01       	movw	r22, r14
    13ec:	80 e3       	ldi	r24, 0x30	; 48
    13ee:	90 e0       	ldi	r25, 0x00	; 0
    13f0:	0e 94 d6 07 	call	0xfac	; 0xfac <fputc>
    13f4:	5a 94       	dec	r5
    13f6:	f7 cf       	rjmp	.-18     	; 0x13e6 <vfprintf+0x354>
    13f8:	aa 94       	dec	r10
    13fa:	f4 01       	movw	r30, r8
    13fc:	ea 0d       	add	r30, r10
    13fe:	f1 1d       	adc	r31, r1
    1400:	80 81       	ld	r24, Z
    1402:	b7 01       	movw	r22, r14
    1404:	90 e0       	ldi	r25, 0x00	; 0
    1406:	0e 94 d6 07 	call	0xfac	; 0xfac <fputc>
    140a:	a1 10       	cpse	r10, r1
    140c:	f5 cf       	rjmp	.-22     	; 0x13f8 <vfprintf+0x366>
    140e:	33 20       	and	r3, r3
    1410:	09 f4       	brne	.+2      	; 0x1414 <vfprintf+0x382>
    1412:	51 ce       	rjmp	.-862    	; 0x10b6 <vfprintf+0x24>
    1414:	b7 01       	movw	r22, r14
    1416:	80 e2       	ldi	r24, 0x20	; 32
    1418:	90 e0       	ldi	r25, 0x00	; 0
    141a:	0e 94 d6 07 	call	0xfac	; 0xfac <fputc>
    141e:	3a 94       	dec	r3
    1420:	f6 cf       	rjmp	.-20     	; 0x140e <vfprintf+0x37c>
    1422:	f7 01       	movw	r30, r14
    1424:	86 81       	ldd	r24, Z+6	; 0x06
    1426:	97 81       	ldd	r25, Z+7	; 0x07
    1428:	02 c0       	rjmp	.+4      	; 0x142e <vfprintf+0x39c>
    142a:	8f ef       	ldi	r24, 0xFF	; 255
    142c:	9f ef       	ldi	r25, 0xFF	; 255
    142e:	2c 96       	adiw	r28, 0x0c	; 12
    1430:	e2 e1       	ldi	r30, 0x12	; 18
    1432:	0c 94 ab 0a 	jmp	0x1556	; 0x1556 <__epilogue_restores__>

00001436 <strnlen_P>:
    1436:	fc 01       	movw	r30, r24
    1438:	05 90       	lpm	r0, Z+
    143a:	61 50       	subi	r22, 0x01	; 1
    143c:	70 40       	sbci	r23, 0x00	; 0
    143e:	01 10       	cpse	r0, r1
    1440:	d8 f7       	brcc	.-10     	; 0x1438 <strnlen_P+0x2>
    1442:	80 95       	com	r24
    1444:	90 95       	com	r25
    1446:	8e 0f       	add	r24, r30
    1448:	9f 1f       	adc	r25, r31
    144a:	08 95       	ret

0000144c <strnlen>:
    144c:	fc 01       	movw	r30, r24
    144e:	61 50       	subi	r22, 0x01	; 1
    1450:	70 40       	sbci	r23, 0x00	; 0
    1452:	01 90       	ld	r0, Z+
    1454:	01 10       	cpse	r0, r1
    1456:	d8 f7       	brcc	.-10     	; 0x144e <strnlen+0x2>
    1458:	80 95       	com	r24
    145a:	90 95       	com	r25
    145c:	8e 0f       	add	r24, r30
    145e:	9f 1f       	adc	r25, r31
    1460:	08 95       	ret

00001462 <__ultoa_invert>:
    1462:	fa 01       	movw	r30, r20
    1464:	aa 27       	eor	r26, r26
    1466:	28 30       	cpi	r18, 0x08	; 8
    1468:	51 f1       	breq	.+84     	; 0x14be <__ultoa_invert+0x5c>
    146a:	20 31       	cpi	r18, 0x10	; 16
    146c:	81 f1       	breq	.+96     	; 0x14ce <__ultoa_invert+0x6c>
    146e:	e8 94       	clt
    1470:	6f 93       	push	r22
    1472:	6e 7f       	andi	r22, 0xFE	; 254
    1474:	6e 5f       	subi	r22, 0xFE	; 254
    1476:	7f 4f       	sbci	r23, 0xFF	; 255
    1478:	8f 4f       	sbci	r24, 0xFF	; 255
    147a:	9f 4f       	sbci	r25, 0xFF	; 255
    147c:	af 4f       	sbci	r26, 0xFF	; 255
    147e:	b1 e0       	ldi	r27, 0x01	; 1
    1480:	3e d0       	rcall	.+124    	; 0x14fe <__ultoa_invert+0x9c>
    1482:	b4 e0       	ldi	r27, 0x04	; 4
    1484:	3c d0       	rcall	.+120    	; 0x14fe <__ultoa_invert+0x9c>
    1486:	67 0f       	add	r22, r23
    1488:	78 1f       	adc	r23, r24
    148a:	89 1f       	adc	r24, r25
    148c:	9a 1f       	adc	r25, r26
    148e:	a1 1d       	adc	r26, r1
    1490:	68 0f       	add	r22, r24
    1492:	79 1f       	adc	r23, r25
    1494:	8a 1f       	adc	r24, r26
    1496:	91 1d       	adc	r25, r1
    1498:	a1 1d       	adc	r26, r1
    149a:	6a 0f       	add	r22, r26
    149c:	71 1d       	adc	r23, r1
    149e:	81 1d       	adc	r24, r1
    14a0:	91 1d       	adc	r25, r1
    14a2:	a1 1d       	adc	r26, r1
    14a4:	20 d0       	rcall	.+64     	; 0x14e6 <__ultoa_invert+0x84>
    14a6:	09 f4       	brne	.+2      	; 0x14aa <__ultoa_invert+0x48>
    14a8:	68 94       	set
    14aa:	3f 91       	pop	r19
    14ac:	2a e0       	ldi	r18, 0x0A	; 10
    14ae:	26 9f       	mul	r18, r22
    14b0:	11 24       	eor	r1, r1
    14b2:	30 19       	sub	r19, r0
    14b4:	30 5d       	subi	r19, 0xD0	; 208
    14b6:	31 93       	st	Z+, r19
    14b8:	de f6       	brtc	.-74     	; 0x1470 <__ultoa_invert+0xe>
    14ba:	cf 01       	movw	r24, r30
    14bc:	08 95       	ret
    14be:	46 2f       	mov	r20, r22
    14c0:	47 70       	andi	r20, 0x07	; 7
    14c2:	40 5d       	subi	r20, 0xD0	; 208
    14c4:	41 93       	st	Z+, r20
    14c6:	b3 e0       	ldi	r27, 0x03	; 3
    14c8:	0f d0       	rcall	.+30     	; 0x14e8 <__ultoa_invert+0x86>
    14ca:	c9 f7       	brne	.-14     	; 0x14be <__ultoa_invert+0x5c>
    14cc:	f6 cf       	rjmp	.-20     	; 0x14ba <__ultoa_invert+0x58>
    14ce:	46 2f       	mov	r20, r22
    14d0:	4f 70       	andi	r20, 0x0F	; 15
    14d2:	40 5d       	subi	r20, 0xD0	; 208
    14d4:	4a 33       	cpi	r20, 0x3A	; 58
    14d6:	18 f0       	brcs	.+6      	; 0x14de <__ultoa_invert+0x7c>
    14d8:	49 5d       	subi	r20, 0xD9	; 217
    14da:	31 fd       	sbrc	r19, 1
    14dc:	40 52       	subi	r20, 0x20	; 32
    14de:	41 93       	st	Z+, r20
    14e0:	02 d0       	rcall	.+4      	; 0x14e6 <__ultoa_invert+0x84>
    14e2:	a9 f7       	brne	.-22     	; 0x14ce <__ultoa_invert+0x6c>
    14e4:	ea cf       	rjmp	.-44     	; 0x14ba <__ultoa_invert+0x58>
    14e6:	b4 e0       	ldi	r27, 0x04	; 4
    14e8:	a6 95       	lsr	r26
    14ea:	97 95       	ror	r25
    14ec:	87 95       	ror	r24
    14ee:	77 95       	ror	r23
    14f0:	67 95       	ror	r22
    14f2:	ba 95       	dec	r27
    14f4:	c9 f7       	brne	.-14     	; 0x14e8 <__ultoa_invert+0x86>
    14f6:	00 97       	sbiw	r24, 0x00	; 0
    14f8:	61 05       	cpc	r22, r1
    14fa:	71 05       	cpc	r23, r1
    14fc:	08 95       	ret
    14fe:	9b 01       	movw	r18, r22
    1500:	ac 01       	movw	r20, r24
    1502:	0a 2e       	mov	r0, r26
    1504:	06 94       	lsr	r0
    1506:	57 95       	ror	r21
    1508:	47 95       	ror	r20
    150a:	37 95       	ror	r19
    150c:	27 95       	ror	r18
    150e:	ba 95       	dec	r27
    1510:	c9 f7       	brne	.-14     	; 0x1504 <__ultoa_invert+0xa2>
    1512:	62 0f       	add	r22, r18
    1514:	73 1f       	adc	r23, r19
    1516:	84 1f       	adc	r24, r20
    1518:	95 1f       	adc	r25, r21
    151a:	a0 1d       	adc	r26, r0
    151c:	08 95       	ret

0000151e <__prologue_saves__>:
    151e:	2f 92       	push	r2
    1520:	3f 92       	push	r3
    1522:	4f 92       	push	r4
    1524:	5f 92       	push	r5
    1526:	6f 92       	push	r6
    1528:	7f 92       	push	r7
    152a:	8f 92       	push	r8
    152c:	9f 92       	push	r9
    152e:	af 92       	push	r10
    1530:	bf 92       	push	r11
    1532:	cf 92       	push	r12
    1534:	df 92       	push	r13
    1536:	ef 92       	push	r14
    1538:	ff 92       	push	r15
    153a:	0f 93       	push	r16
    153c:	1f 93       	push	r17
    153e:	cf 93       	push	r28
    1540:	df 93       	push	r29
    1542:	cd b7       	in	r28, 0x3d	; 61
    1544:	de b7       	in	r29, 0x3e	; 62
    1546:	ca 1b       	sub	r28, r26
    1548:	db 0b       	sbc	r29, r27
    154a:	0f b6       	in	r0, 0x3f	; 63
    154c:	f8 94       	cli
    154e:	de bf       	out	0x3e, r29	; 62
    1550:	0f be       	out	0x3f, r0	; 63
    1552:	cd bf       	out	0x3d, r28	; 61
    1554:	09 94       	ijmp

00001556 <__epilogue_restores__>:
    1556:	2a 88       	ldd	r2, Y+18	; 0x12
    1558:	39 88       	ldd	r3, Y+17	; 0x11
    155a:	48 88       	ldd	r4, Y+16	; 0x10
    155c:	5f 84       	ldd	r5, Y+15	; 0x0f
    155e:	6e 84       	ldd	r6, Y+14	; 0x0e
    1560:	7d 84       	ldd	r7, Y+13	; 0x0d
    1562:	8c 84       	ldd	r8, Y+12	; 0x0c
    1564:	9b 84       	ldd	r9, Y+11	; 0x0b
    1566:	aa 84       	ldd	r10, Y+10	; 0x0a
    1568:	b9 84       	ldd	r11, Y+9	; 0x09
    156a:	c8 84       	ldd	r12, Y+8	; 0x08
    156c:	df 80       	ldd	r13, Y+7	; 0x07
    156e:	ee 80       	ldd	r14, Y+6	; 0x06
    1570:	fd 80       	ldd	r15, Y+5	; 0x05
    1572:	0c 81       	ldd	r16, Y+4	; 0x04
    1574:	1b 81       	ldd	r17, Y+3	; 0x03
    1576:	aa 81       	ldd	r26, Y+2	; 0x02
    1578:	b9 81       	ldd	r27, Y+1	; 0x01
    157a:	ce 0f       	add	r28, r30
    157c:	d1 1d       	adc	r29, r1
    157e:	0f b6       	in	r0, 0x3f	; 63
    1580:	f8 94       	cli
    1582:	de bf       	out	0x3e, r29	; 62
    1584:	0f be       	out	0x3f, r0	; 63
    1586:	cd bf       	out	0x3d, r28	; 61
    1588:	ed 01       	movw	r28, r26
    158a:	08 95       	ret

0000158c <_exit>:
    158c:	f8 94       	cli

0000158e <__stop_program>:
    158e:	ff cf       	rjmp	.-2      	; 0x158e <__stop_program>
